
dev_simulator      檔案格式 elf64-x86-64


.init 區段的反組譯：

0000000000001000 <_init>:
    1000:	f3 0f 1e fa          	endbr64
    1004:	48 83 ec 08          	sub    $0x8,%rsp
    1008:	48 8b 05 d9 2f 00 00 	mov    0x2fd9(%rip),%rax        # 3fe8 <__gmon_start__@Base>
    100f:	48 85 c0             	test   %rax,%rax
    1012:	74 02                	je     1016 <_init+0x16>
    1014:	ff d0                	call   *%rax
    1016:	48 83 c4 08          	add    $0x8,%rsp
    101a:	c3                   	ret

.plt 區段的反組譯：

0000000000001020 <.plt>:
    1020:	ff 35 0a 2f 00 00    	push   0x2f0a(%rip)        # 3f30 <_GLOBAL_OFFSET_TABLE_+0x8>
    1026:	ff 25 0c 2f 00 00    	jmp    *0x2f0c(%rip)        # 3f38 <_GLOBAL_OFFSET_TABLE_+0x10>
    102c:	0f 1f 40 00          	nopl   0x0(%rax)
    1030:	f3 0f 1e fa          	endbr64
    1034:	68 00 00 00 00       	push   $0x0
    1039:	e9 e2 ff ff ff       	jmp    1020 <_init+0x20>
    103e:	66 90                	xchg   %ax,%ax
    1040:	f3 0f 1e fa          	endbr64
    1044:	68 01 00 00 00       	push   $0x1
    1049:	e9 d2 ff ff ff       	jmp    1020 <_init+0x20>
    104e:	66 90                	xchg   %ax,%ax
    1050:	f3 0f 1e fa          	endbr64
    1054:	68 02 00 00 00       	push   $0x2
    1059:	e9 c2 ff ff ff       	jmp    1020 <_init+0x20>
    105e:	66 90                	xchg   %ax,%ax
    1060:	f3 0f 1e fa          	endbr64
    1064:	68 03 00 00 00       	push   $0x3
    1069:	e9 b2 ff ff ff       	jmp    1020 <_init+0x20>
    106e:	66 90                	xchg   %ax,%ax
    1070:	f3 0f 1e fa          	endbr64
    1074:	68 04 00 00 00       	push   $0x4
    1079:	e9 a2 ff ff ff       	jmp    1020 <_init+0x20>
    107e:	66 90                	xchg   %ax,%ax
    1080:	f3 0f 1e fa          	endbr64
    1084:	68 05 00 00 00       	push   $0x5
    1089:	e9 92 ff ff ff       	jmp    1020 <_init+0x20>
    108e:	66 90                	xchg   %ax,%ax
    1090:	f3 0f 1e fa          	endbr64
    1094:	68 06 00 00 00       	push   $0x6
    1099:	e9 82 ff ff ff       	jmp    1020 <_init+0x20>
    109e:	66 90                	xchg   %ax,%ax
    10a0:	f3 0f 1e fa          	endbr64
    10a4:	68 07 00 00 00       	push   $0x7
    10a9:	e9 72 ff ff ff       	jmp    1020 <_init+0x20>
    10ae:	66 90                	xchg   %ax,%ax
    10b0:	f3 0f 1e fa          	endbr64
    10b4:	68 08 00 00 00       	push   $0x8
    10b9:	e9 62 ff ff ff       	jmp    1020 <_init+0x20>
    10be:	66 90                	xchg   %ax,%ax
    10c0:	f3 0f 1e fa          	endbr64
    10c4:	68 09 00 00 00       	push   $0x9
    10c9:	e9 52 ff ff ff       	jmp    1020 <_init+0x20>
    10ce:	66 90                	xchg   %ax,%ax
    10d0:	f3 0f 1e fa          	endbr64
    10d4:	68 0a 00 00 00       	push   $0xa
    10d9:	e9 42 ff ff ff       	jmp    1020 <_init+0x20>
    10de:	66 90                	xchg   %ax,%ax
    10e0:	f3 0f 1e fa          	endbr64
    10e4:	68 0b 00 00 00       	push   $0xb
    10e9:	e9 32 ff ff ff       	jmp    1020 <_init+0x20>
    10ee:	66 90                	xchg   %ax,%ax
    10f0:	f3 0f 1e fa          	endbr64
    10f4:	68 0c 00 00 00       	push   $0xc
    10f9:	e9 22 ff ff ff       	jmp    1020 <_init+0x20>
    10fe:	66 90                	xchg   %ax,%ax
    1100:	f3 0f 1e fa          	endbr64
    1104:	68 0d 00 00 00       	push   $0xd
    1109:	e9 12 ff ff ff       	jmp    1020 <_init+0x20>
    110e:	66 90                	xchg   %ax,%ax
    1110:	f3 0f 1e fa          	endbr64
    1114:	68 0e 00 00 00       	push   $0xe
    1119:	e9 02 ff ff ff       	jmp    1020 <_init+0x20>
    111e:	66 90                	xchg   %ax,%ax
    1120:	f3 0f 1e fa          	endbr64
    1124:	68 0f 00 00 00       	push   $0xf
    1129:	e9 f2 fe ff ff       	jmp    1020 <_init+0x20>
    112e:	66 90                	xchg   %ax,%ax
    1130:	f3 0f 1e fa          	endbr64
    1134:	68 10 00 00 00       	push   $0x10
    1139:	e9 e2 fe ff ff       	jmp    1020 <_init+0x20>
    113e:	66 90                	xchg   %ax,%ax
    1140:	f3 0f 1e fa          	endbr64
    1144:	68 11 00 00 00       	push   $0x11
    1149:	e9 d2 fe ff ff       	jmp    1020 <_init+0x20>
    114e:	66 90                	xchg   %ax,%ax
    1150:	f3 0f 1e fa          	endbr64
    1154:	68 12 00 00 00       	push   $0x12
    1159:	e9 c2 fe ff ff       	jmp    1020 <_init+0x20>
    115e:	66 90                	xchg   %ax,%ax

.plt.got 區段的反組譯：

0000000000001160 <__cxa_finalize@plt>:
    1160:	f3 0f 1e fa          	endbr64
    1164:	ff 25 8e 2e 00 00    	jmp    *0x2e8e(%rip)        # 3ff8 <__cxa_finalize@GLIBC_2.2.5>
    116a:	66 0f 1f 44 00 00    	nopw   0x0(%rax,%rax,1)

.plt.sec 區段的反組譯：

0000000000001170 <unlink@plt>:
    1170:	f3 0f 1e fa          	endbr64
    1174:	ff 25 c6 2d 00 00    	jmp    *0x2dc6(%rip)        # 3f40 <unlink@GLIBC_2.2.5>
    117a:	66 0f 1f 44 00 00    	nopw   0x0(%rax,%rax,1)

0000000000001180 <puts@plt>:
    1180:	f3 0f 1e fa          	endbr64
    1184:	ff 25 be 2d 00 00    	jmp    *0x2dbe(%rip)        # 3f48 <puts@GLIBC_2.2.5>
    118a:	66 0f 1f 44 00 00    	nopw   0x0(%rax,%rax,1)

0000000000001190 <write@plt>:
    1190:	f3 0f 1e fa          	endbr64
    1194:	ff 25 b6 2d 00 00    	jmp    *0x2db6(%rip)        # 3f50 <write@GLIBC_2.2.5>
    119a:	66 0f 1f 44 00 00    	nopw   0x0(%rax,%rax,1)

00000000000011a0 <strlen@plt>:
    11a0:	f3 0f 1e fa          	endbr64
    11a4:	ff 25 ae 2d 00 00    	jmp    *0x2dae(%rip)        # 3f58 <strlen@GLIBC_2.2.5>
    11aa:	66 0f 1f 44 00 00    	nopw   0x0(%rax,%rax,1)

00000000000011b0 <__stack_chk_fail@plt>:
    11b0:	f3 0f 1e fa          	endbr64
    11b4:	ff 25 a6 2d 00 00    	jmp    *0x2da6(%rip)        # 3f60 <__stack_chk_fail@GLIBC_2.4>
    11ba:	66 0f 1f 44 00 00    	nopw   0x0(%rax,%rax,1)

00000000000011c0 <printf@plt>:
    11c0:	f3 0f 1e fa          	endbr64
    11c4:	ff 25 9e 2d 00 00    	jmp    *0x2d9e(%rip)        # 3f68 <printf@GLIBC_2.2.5>
    11ca:	66 0f 1f 44 00 00    	nopw   0x0(%rax,%rax,1)

00000000000011d0 <snprintf@plt>:
    11d0:	f3 0f 1e fa          	endbr64
    11d4:	ff 25 96 2d 00 00    	jmp    *0x2d96(%rip)        # 3f70 <snprintf@GLIBC_2.2.5>
    11da:	66 0f 1f 44 00 00    	nopw   0x0(%rax,%rax,1)

00000000000011e0 <memset@plt>:
    11e0:	f3 0f 1e fa          	endbr64
    11e4:	ff 25 8e 2d 00 00    	jmp    *0x2d8e(%rip)        # 3f78 <memset@GLIBC_2.2.5>
    11ea:	66 0f 1f 44 00 00    	nopw   0x0(%rax,%rax,1)

00000000000011f0 <close@plt>:
    11f0:	f3 0f 1e fa          	endbr64
    11f4:	ff 25 86 2d 00 00    	jmp    *0x2d86(%rip)        # 3f80 <close@GLIBC_2.2.5>
    11fa:	66 0f 1f 44 00 00    	nopw   0x0(%rax,%rax,1)

0000000000001200 <read@plt>:
    1200:	f3 0f 1e fa          	endbr64
    1204:	ff 25 7e 2d 00 00    	jmp    *0x2d7e(%rip)        # 3f88 <read@GLIBC_2.2.5>
    120a:	66 0f 1f 44 00 00    	nopw   0x0(%rax,%rax,1)

0000000000001210 <signal@plt>:
    1210:	f3 0f 1e fa          	endbr64
    1214:	ff 25 76 2d 00 00    	jmp    *0x2d76(%rip)        # 3f90 <signal@GLIBC_2.2.5>
    121a:	66 0f 1f 44 00 00    	nopw   0x0(%rax,%rax,1)

0000000000001220 <mkfifo@plt>:
    1220:	f3 0f 1e fa          	endbr64
    1224:	ff 25 6e 2d 00 00    	jmp    *0x2d6e(%rip)        # 3f98 <mkfifo@GLIBC_2.2.5>
    122a:	66 0f 1f 44 00 00    	nopw   0x0(%rax,%rax,1)

0000000000001230 <pthread_create@plt>:
    1230:	f3 0f 1e fa          	endbr64
    1234:	ff 25 66 2d 00 00    	jmp    *0x2d66(%rip)        # 3fa0 <pthread_create@GLIBC_2.34>
    123a:	66 0f 1f 44 00 00    	nopw   0x0(%rax,%rax,1)

0000000000001240 <open@plt>:
    1240:	f3 0f 1e fa          	endbr64
    1244:	ff 25 5e 2d 00 00    	jmp    *0x2d5e(%rip)        # 3fa8 <open@GLIBC_2.2.5>
    124a:	66 0f 1f 44 00 00    	nopw   0x0(%rax,%rax,1)

0000000000001250 <perror@plt>:
    1250:	f3 0f 1e fa          	endbr64
    1254:	ff 25 56 2d 00 00    	jmp    *0x2d56(%rip)        # 3fb0 <perror@GLIBC_2.2.5>
    125a:	66 0f 1f 44 00 00    	nopw   0x0(%rax,%rax,1)

0000000000001260 <exit@plt>:
    1260:	f3 0f 1e fa          	endbr64
    1264:	ff 25 4e 2d 00 00    	jmp    *0x2d4e(%rip)        # 3fb8 <exit@GLIBC_2.2.5>
    126a:	66 0f 1f 44 00 00    	nopw   0x0(%rax,%rax,1)

0000000000001270 <pthread_join@plt>:
    1270:	f3 0f 1e fa          	endbr64
    1274:	ff 25 46 2d 00 00    	jmp    *0x2d46(%rip)        # 3fc0 <pthread_join@GLIBC_2.34>
    127a:	66 0f 1f 44 00 00    	nopw   0x0(%rax,%rax,1)

0000000000001280 <pthread_cancel@plt>:
    1280:	f3 0f 1e fa          	endbr64
    1284:	ff 25 3e 2d 00 00    	jmp    *0x2d3e(%rip)        # 3fc8 <pthread_cancel@GLIBC_2.34>
    128a:	66 0f 1f 44 00 00    	nopw   0x0(%rax,%rax,1)

0000000000001290 <sleep@plt>:
    1290:	f3 0f 1e fa          	endbr64
    1294:	ff 25 36 2d 00 00    	jmp    *0x2d36(%rip)        # 3fd0 <sleep@GLIBC_2.2.5>
    129a:	66 0f 1f 44 00 00    	nopw   0x0(%rax,%rax,1)

.text 區段的反組譯：

00000000000012a0 <_start>:
    12a0:	f3 0f 1e fa          	endbr64
    12a4:	31 ed                	xor    %ebp,%ebp
    12a6:	49 89 d1             	mov    %rdx,%r9
    12a9:	5e                   	pop    %rsi
    12aa:	48 89 e2             	mov    %rsp,%rdx
    12ad:	48 83 e4 f0          	and    $0xfffffffffffffff0,%rsp
    12b1:	50                   	push   %rax
    12b2:	54                   	push   %rsp
    12b3:	45 31 c0             	xor    %r8d,%r8d
    12b6:	31 c9                	xor    %ecx,%ecx
    12b8:	48 8d 3d da 06 00 00 	lea    0x6da(%rip),%rdi        # 1999 <main>
    12bf:	ff 15 13 2d 00 00    	call   *0x2d13(%rip)        # 3fd8 <__libc_start_main@GLIBC_2.34>
    12c5:	f4                   	hlt
    12c6:	66 2e 0f 1f 84 00 00 	cs nopw 0x0(%rax,%rax,1)
    12cd:	00 00 00 

00000000000012d0 <deregister_tm_clones>:
    12d0:	48 8d 3d b9 2e 00 00 	lea    0x2eb9(%rip),%rdi        # 4190 <__TMC_END__>
    12d7:	48 8d 05 b2 2e 00 00 	lea    0x2eb2(%rip),%rax        # 4190 <__TMC_END__>
    12de:	48 39 f8             	cmp    %rdi,%rax
    12e1:	74 15                	je     12f8 <deregister_tm_clones+0x28>
    12e3:	48 8b 05 f6 2c 00 00 	mov    0x2cf6(%rip),%rax        # 3fe0 <_ITM_deregisterTMCloneTable@Base>
    12ea:	48 85 c0             	test   %rax,%rax
    12ed:	74 09                	je     12f8 <deregister_tm_clones+0x28>
    12ef:	ff e0                	jmp    *%rax
    12f1:	0f 1f 80 00 00 00 00 	nopl   0x0(%rax)
    12f8:	c3                   	ret
    12f9:	0f 1f 80 00 00 00 00 	nopl   0x0(%rax)

0000000000001300 <register_tm_clones>:
    1300:	48 8d 3d 89 2e 00 00 	lea    0x2e89(%rip),%rdi        # 4190 <__TMC_END__>
    1307:	48 8d 35 82 2e 00 00 	lea    0x2e82(%rip),%rsi        # 4190 <__TMC_END__>
    130e:	48 29 fe             	sub    %rdi,%rsi
    1311:	48 89 f0             	mov    %rsi,%rax
    1314:	48 c1 ee 3f          	shr    $0x3f,%rsi
    1318:	48 c1 f8 03          	sar    $0x3,%rax
    131c:	48 01 c6             	add    %rax,%rsi
    131f:	48 d1 fe             	sar    $1,%rsi
    1322:	74 14                	je     1338 <register_tm_clones+0x38>
    1324:	48 8b 05 c5 2c 00 00 	mov    0x2cc5(%rip),%rax        # 3ff0 <_ITM_registerTMCloneTable@Base>
    132b:	48 85 c0             	test   %rax,%rax
    132e:	74 08                	je     1338 <register_tm_clones+0x38>
    1330:	ff e0                	jmp    *%rax
    1332:	66 0f 1f 44 00 00    	nopw   0x0(%rax,%rax,1)
    1338:	c3                   	ret
    1339:	0f 1f 80 00 00 00 00 	nopl   0x0(%rax)

0000000000001340 <__do_global_dtors_aux>:
    1340:	f3 0f 1e fa          	endbr64
    1344:	80 3d 55 2e 00 00 00 	cmpb   $0x0,0x2e55(%rip)        # 41a0 <completed.0>
    134b:	75 2b                	jne    1378 <__do_global_dtors_aux+0x38>
    134d:	55                   	push   %rbp
    134e:	48 83 3d a2 2c 00 00 	cmpq   $0x0,0x2ca2(%rip)        # 3ff8 <__cxa_finalize@GLIBC_2.2.5>
    1355:	00 
    1356:	48 89 e5             	mov    %rsp,%rbp
    1359:	74 0c                	je     1367 <__do_global_dtors_aux+0x27>
    135b:	48 8b 3d a6 2c 00 00 	mov    0x2ca6(%rip),%rdi        # 4008 <__dso_handle>
    1362:	e8 f9 fd ff ff       	call   1160 <__cxa_finalize@plt>
    1367:	e8 64 ff ff ff       	call   12d0 <deregister_tm_clones>
    136c:	c6 05 2d 2e 00 00 01 	movb   $0x1,0x2e2d(%rip)        # 41a0 <completed.0>
    1373:	5d                   	pop    %rbp
    1374:	c3                   	ret
    1375:	0f 1f 00             	nopl   (%rax)
    1378:	c3                   	ret
    1379:	0f 1f 80 00 00 00 00 	nopl   0x0(%rax)

0000000000001380 <frame_dummy>:
    1380:	f3 0f 1e fa          	endbr64
    1384:	e9 77 ff ff ff       	jmp    1300 <register_tm_clones>

0000000000001389 <handle_sigint>:
    1389:	f3 0f 1e fa          	endbr64
    138d:	55                   	push   %rbp
    138e:	48 89 e5             	mov    %rsp,%rbp
    1391:	48 83 ec 10          	sub    $0x10,%rsp
    1395:	89 7d fc             	mov    %edi,-0x4(%rbp)
    1398:	83 7d fc 02          	cmpl   $0x2,-0x4(%rbp)
    139c:	75 6e                	jne    140c <handle_sigint+0x83>
    139e:	48 8d 05 63 0c 00 00 	lea    0xc63(%rip),%rax        # 2008 <_IO_stdin_used+0x8>
    13a5:	48 89 c7             	mov    %rax,%rdi
    13a8:	e8 d3 fd ff ff       	call   1180 <puts@plt>
    13ad:	c7 05 59 2c 00 00 00 	movl   $0x0,0x2c59(%rip)        # 4010 <running>
    13b4:	00 00 00 
    13b7:	48 8b 05 2a 2e 00 00 	mov    0x2e2a(%rip),%rax        # 41e8 <kitchen_thread>
    13be:	48 89 c7             	mov    %rax,%rdi
    13c1:	e8 ba fe ff ff       	call   1280 <pthread_cancel@plt>
    13c6:	48 8b 05 23 2e 00 00 	mov    0x2e23(%rip),%rax        # 41f0 <chef_tasks_thread>
    13cd:	48 89 c7             	mov    %rax,%rdi
    13d0:	e8 ab fe ff ff       	call   1280 <pthread_cancel@plt>
    13d5:	48 8d 05 58 0c 00 00 	lea    0xc58(%rip),%rax        # 2034 <_IO_stdin_used+0x34>
    13dc:	48 89 c7             	mov    %rax,%rdi
    13df:	e8 8c fd ff ff       	call   1170 <unlink@plt>
    13e4:	48 8d 05 5a 0c 00 00 	lea    0xc5a(%rip),%rax        # 2045 <_IO_stdin_used+0x45>
    13eb:	48 89 c7             	mov    %rax,%rdi
    13ee:	e8 7d fd ff ff       	call   1170 <unlink@plt>
    13f3:	48 8d 05 64 0c 00 00 	lea    0xc64(%rip),%rax        # 205e <_IO_stdin_used+0x5e>
    13fa:	48 89 c7             	mov    %rax,%rdi
    13fd:	e8 6e fd ff ff       	call   1170 <unlink@plt>
    1402:	bf 00 00 00 00       	mov    $0x0,%edi
    1407:	e8 54 fe ff ff       	call   1260 <exit@plt>
    140c:	90                   	nop
    140d:	c9                   	leave
    140e:	c3                   	ret

000000000000140f <kitchen_simulator>:
    140f:	f3 0f 1e fa          	endbr64
    1413:	55                   	push   %rbp
    1414:	48 89 e5             	mov    %rsp,%rbp
    1417:	48 81 ec 40 01 00 00 	sub    $0x140,%rsp
    141e:	48 89 bd c8 fe ff ff 	mov    %rdi,-0x138(%rbp)
    1425:	64 48 8b 04 25 28 00 	mov    %fs:0x28,%rax
    142c:	00 00 
    142e:	48 89 45 f8          	mov    %rax,-0x8(%rbp)
    1432:	31 c0                	xor    %eax,%eax
    1434:	48 8d 05 3d 0c 00 00 	lea    0xc3d(%rip),%rax        # 2078 <_IO_stdin_used+0x78>
    143b:	48 89 c7             	mov    %rax,%rdi
    143e:	e8 3d fd ff ff       	call   1180 <puts@plt>
    1443:	e9 7d 01 00 00       	jmp    15c5 <kitchen_simulator+0x1b6>
    1448:	be 02 00 00 00       	mov    $0x2,%esi
    144d:	48 8d 05 e0 0b 00 00 	lea    0xbe0(%rip),%rax        # 2034 <_IO_stdin_used+0x34>
    1454:	48 89 c7             	mov    %rax,%rdi
    1457:	b8 00 00 00 00       	mov    $0x0,%eax
    145c:	e8 df fd ff ff       	call   1240 <open@plt>
    1461:	89 85 d4 fe ff ff    	mov    %eax,-0x12c(%rbp)
    1467:	83 bd d4 fe ff ff 00 	cmpl   $0x0,-0x12c(%rbp)
    146e:	79 1e                	jns    148e <kitchen_simulator+0x7f>
    1470:	48 8d 05 2c 0c 00 00 	lea    0xc2c(%rip),%rax        # 20a3 <_IO_stdin_used+0xa3>
    1477:	48 89 c7             	mov    %rax,%rdi
    147a:	e8 d1 fd ff ff       	call   1250 <perror@plt>
    147f:	bf 01 00 00 00       	mov    $0x1,%edi
    1484:	e8 07 fe ff ff       	call   1290 <sleep@plt>
    1489:	e9 37 01 00 00       	jmp    15c5 <kitchen_simulator+0x1b6>
    148e:	c7 85 d0 fe ff ff 00 	movl   $0x0,-0x130(%rbp)
    1495:	00 00 00 
    1498:	e9 04 01 00 00       	jmp    15a1 <kitchen_simulator+0x192>
    149d:	8b 85 d0 fe ff ff    	mov    -0x130(%rbp),%eax
    14a3:	89 85 d8 fe ff ff    	mov    %eax,-0x128(%rbp)
    14a9:	8b 85 d0 fe ff ff    	mov    -0x130(%rbp),%eax
    14af:	83 c0 64             	add    $0x64,%eax
    14b2:	89 85 dc fe ff ff    	mov    %eax,-0x124(%rbp)
    14b8:	8b 85 d0 fe ff ff    	mov    -0x130(%rbp),%eax
    14be:	83 e0 01             	and    $0x1,%eax
    14c1:	85 c0                	test   %eax,%eax
    14c3:	75 09                	jne    14ce <kitchen_simulator+0xbf>
    14c5:	48 8d 05 f3 0b 00 00 	lea    0xbf3(%rip),%rax        # 20bf <_IO_stdin_used+0xbf>
    14cc:	eb 07                	jmp    14d5 <kitchen_simulator+0xc6>
    14ce:	48 8d 05 f0 0b 00 00 	lea    0xbf0(%rip),%rax        # 20c5 <_IO_stdin_used+0xc5>
    14d5:	48 89 85 e0 fe ff ff 	mov    %rax,-0x120(%rbp)
    14dc:	8b 85 d0 fe ff ff    	mov    -0x130(%rbp),%eax
    14e2:	83 e0 01             	and    $0x1,%eax
    14e5:	85 c0                	test   %eax,%eax
    14e7:	75 09                	jne    14f2 <kitchen_simulator+0xe3>
    14e9:	48 8d 05 da 0b 00 00 	lea    0xbda(%rip),%rax        # 20ca <_IO_stdin_used+0xca>
    14f0:	eb 07                	jmp    14f9 <kitchen_simulator+0xea>
    14f2:	48 8d 05 db 0b 00 00 	lea    0xbdb(%rip),%rax        # 20d4 <_IO_stdin_used+0xd4>
    14f9:	48 89 85 e8 fe ff ff 	mov    %rax,-0x118(%rbp)
    1500:	8b b5 dc fe ff ff    	mov    -0x124(%rbp),%esi
    1506:	48 8b 8d e0 fe ff ff 	mov    -0x120(%rbp),%rcx
    150d:	8b 95 d8 fe ff ff    	mov    -0x128(%rbp),%edx
    1513:	48 8d 85 f0 fe ff ff 	lea    -0x110(%rbp),%rax
    151a:	48 83 ec 08          	sub    $0x8,%rsp
    151e:	ff b5 e8 fe ff ff    	push   -0x118(%rbp)
    1524:	41 89 f1             	mov    %esi,%r9d
    1527:	49 89 c8             	mov    %rcx,%r8
    152a:	89 d1                	mov    %edx,%ecx
    152c:	48 8d 15 a7 0b 00 00 	lea    0xba7(%rip),%rdx        # 20da <_IO_stdin_used+0xda>
    1533:	be 00 01 00 00       	mov    $0x100,%esi
    1538:	48 89 c7             	mov    %rax,%rdi
    153b:	b8 00 00 00 00       	mov    $0x0,%eax
    1540:	e8 8b fc ff ff       	call   11d0 <snprintf@plt>
    1545:	48 83 c4 10          	add    $0x10,%rsp
    1549:	48 8d 85 f0 fe ff ff 	lea    -0x110(%rbp),%rax
    1550:	48 89 c6             	mov    %rax,%rsi
    1553:	48 8d 05 8c 0b 00 00 	lea    0xb8c(%rip),%rax        # 20e6 <_IO_stdin_used+0xe6>
    155a:	48 89 c7             	mov    %rax,%rdi
    155d:	b8 00 00 00 00       	mov    $0x0,%eax
    1562:	e8 59 fc ff ff       	call   11c0 <printf@plt>
    1567:	48 8d 85 f0 fe ff ff 	lea    -0x110(%rbp),%rax
    156e:	48 89 c7             	mov    %rax,%rdi
    1571:	e8 2a fc ff ff       	call   11a0 <strlen@plt>
    1576:	48 89 c2             	mov    %rax,%rdx
    1579:	48 8d 8d f0 fe ff ff 	lea    -0x110(%rbp),%rcx
    1580:	8b 85 d4 fe ff ff    	mov    -0x12c(%rbp),%eax
    1586:	48 89 ce             	mov    %rcx,%rsi
    1589:	89 c7                	mov    %eax,%edi
    158b:	e8 00 fc ff ff       	call   1190 <write@plt>
    1590:	bf 05 00 00 00       	mov    $0x5,%edi
    1595:	e8 f6 fc ff ff       	call   1290 <sleep@plt>
    159a:	83 85 d0 fe ff ff 01 	addl   $0x1,-0x130(%rbp)
    15a1:	83 bd d0 fe ff ff 02 	cmpl   $0x2,-0x130(%rbp)
    15a8:	7f 0e                	jg     15b8 <kitchen_simulator+0x1a9>
    15aa:	8b 05 60 2a 00 00    	mov    0x2a60(%rip),%eax        # 4010 <running>
    15b0:	85 c0                	test   %eax,%eax
    15b2:	0f 85 e5 fe ff ff    	jne    149d <kitchen_simulator+0x8e>
    15b8:	8b 85 d4 fe ff ff    	mov    -0x12c(%rbp),%eax
    15be:	89 c7                	mov    %eax,%edi
    15c0:	e8 2b fc ff ff       	call   11f0 <close@plt>
    15c5:	8b 05 45 2a 00 00    	mov    0x2a45(%rip),%eax        # 4010 <running>
    15cb:	85 c0                	test   %eax,%eax
    15cd:	0f 85 75 fe ff ff    	jne    1448 <kitchen_simulator+0x39>
    15d3:	b8 00 00 00 00       	mov    $0x0,%eax
    15d8:	48 8b 55 f8          	mov    -0x8(%rbp),%rdx
    15dc:	64 48 2b 14 25 28 00 	sub    %fs:0x28,%rdx
    15e3:	00 00 
    15e5:	74 05                	je     15ec <kitchen_simulator+0x1dd>
    15e7:	e8 c4 fb ff ff       	call   11b0 <__stack_chk_fail@plt>
    15ec:	c9                   	leave
    15ed:	c3                   	ret

00000000000015ee <chef_tasks_simulator>:
    15ee:	f3 0f 1e fa          	endbr64
    15f2:	55                   	push   %rbp
    15f3:	48 89 e5             	mov    %rsp,%rbp
    15f6:	48 81 ec 70 01 00 00 	sub    $0x170,%rsp
    15fd:	48 89 bd 98 fe ff ff 	mov    %rdi,-0x168(%rbp)
    1604:	64 48 8b 04 25 28 00 	mov    %fs:0x28,%rax
    160b:	00 00 
    160d:	48 89 45 f8          	mov    %rax,-0x8(%rbp)
    1611:	31 c0                	xor    %eax,%eax
    1613:	48 8d 05 6e 0b 00 00 	lea    0xb6e(%rip),%rax        # 2188 <_IO_stdin_used+0x188>
    161a:	48 89 c7             	mov    %rax,%rdi
    161d:	e8 5e fb ff ff       	call   1180 <puts@plt>
    1622:	be 00 08 00 00       	mov    $0x800,%esi
    1627:	48 8d 05 17 0a 00 00 	lea    0xa17(%rip),%rax        # 2045 <_IO_stdin_used+0x45>
    162e:	48 89 c7             	mov    %rax,%rdi
    1631:	b8 00 00 00 00       	mov    $0x0,%eax
    1636:	e8 05 fc ff ff       	call   1240 <open@plt>
    163b:	89 85 a8 fe ff ff    	mov    %eax,-0x158(%rbp)
    1641:	83 bd a8 fe ff ff 00 	cmpl   $0x0,-0x158(%rbp)
    1648:	79 19                	jns    1663 <chef_tasks_simulator+0x75>
    164a:	48 8d 05 67 0b 00 00 	lea    0xb67(%rip),%rax        # 21b8 <_IO_stdin_used+0x1b8>
    1651:	48 89 c7             	mov    %rax,%rdi
    1654:	e8 f7 fb ff ff       	call   1250 <perror@plt>
    1659:	b8 00 00 00 00       	mov    $0x0,%eax
    165e:	e9 20 03 00 00       	jmp    1983 <chef_tasks_simulator+0x395>
    1663:	be 02 00 00 00       	mov    $0x2,%esi
    1668:	48 8d 05 ef 09 00 00 	lea    0x9ef(%rip),%rax        # 205e <_IO_stdin_used+0x5e>
    166f:	48 89 c7             	mov    %rax,%rdi
    1672:	b8 00 00 00 00       	mov    $0x0,%eax
    1677:	e8 c4 fb ff ff       	call   1240 <open@plt>
    167c:	89 85 ac fe ff ff    	mov    %eax,-0x154(%rbp)
    1682:	83 bd ac fe ff ff 00 	cmpl   $0x0,-0x154(%rbp)
    1689:	0f 89 c7 02 00 00    	jns    1956 <chef_tasks_simulator+0x368>
    168f:	48 8d 05 4a 0b 00 00 	lea    0xb4a(%rip),%rax        # 21e0 <_IO_stdin_used+0x1e0>
    1696:	48 89 c7             	mov    %rax,%rdi
    1699:	e8 b2 fb ff ff       	call   1250 <perror@plt>
    169e:	8b 85 a8 fe ff ff    	mov    -0x158(%rbp),%eax
    16a4:	89 c7                	mov    %eax,%edi
    16a6:	e8 45 fb ff ff       	call   11f0 <close@plt>
    16ab:	b8 00 00 00 00       	mov    $0x0,%eax
    16b0:	e9 ce 02 00 00       	jmp    1983 <chef_tasks_simulator+0x395>
    16b5:	c7 85 a4 fe ff ff 00 	movl   $0x0,-0x15c(%rbp)
    16bc:	00 00 00 
    16bf:	e9 7b 02 00 00       	jmp    193f <chef_tasks_simulator+0x351>
    16c4:	8b 85 a4 fe ff ff    	mov    -0x15c(%rbp),%eax
    16ca:	05 c8 00 00 00       	add    $0xc8,%eax
    16cf:	89 85 b0 fe ff ff    	mov    %eax,-0x150(%rbp)
    16d5:	8b 85 a4 fe ff ff    	mov    -0x15c(%rbp),%eax
    16db:	83 c0 0a             	add    $0xa,%eax
    16de:	89 85 b4 fe ff ff    	mov    %eax,-0x14c(%rbp)
    16e4:	8b 85 a4 fe ff ff    	mov    -0x15c(%rbp),%eax
    16ea:	83 c0 01             	add    $0x1,%eax
    16ed:	89 85 b8 fe ff ff    	mov    %eax,-0x148(%rbp)
    16f3:	8b 85 a4 fe ff ff    	mov    -0x15c(%rbp),%eax
    16f9:	48 63 c8             	movslq %eax,%rcx
    16fc:	48 ba ab aa aa aa aa 	movabs $0xaaaaaaaaaaaaaaab,%rdx
    1703:	aa aa aa 
    1706:	48 89 c8             	mov    %rcx,%rax
    1709:	48 f7 e2             	mul    %rdx
    170c:	48 c1 ea 02          	shr    $0x2,%rdx
    1710:	48 89 d0             	mov    %rdx,%rax
    1713:	48 01 c0             	add    %rax,%rax
    1716:	48 01 d0             	add    %rdx,%rax
    1719:	48 01 c0             	add    %rax,%rax
    171c:	48 29 c1             	sub    %rax,%rcx
    171f:	48 89 ca             	mov    %rcx,%rdx
    1722:	48 c1 e2 04          	shl    $0x4,%rdx
    1726:	48 8d 05 f3 29 00 00 	lea    0x29f3(%rip),%rax        # 4120 <temp_step_positions>
    172d:	48 8b 04 02          	mov    (%rdx,%rax,1),%rax
    1731:	48 89 85 c8 fe ff ff 	mov    %rax,-0x138(%rbp)
    1738:	8b 85 a4 fe ff ff    	mov    -0x15c(%rbp),%eax
    173e:	48 63 c8             	movslq %eax,%rcx
    1741:	48 ba ab aa aa aa aa 	movabs $0xaaaaaaaaaaaaaaab,%rdx
    1748:	aa aa aa 
    174b:	48 89 c8             	mov    %rcx,%rax
    174e:	48 f7 e2             	mul    %rdx
    1751:	48 c1 ea 02          	shr    $0x2,%rdx
    1755:	48 89 d0             	mov    %rdx,%rax
    1758:	48 01 c0             	add    %rax,%rax
    175b:	48 01 d0             	add    %rdx,%rax
    175e:	48 01 c0             	add    %rax,%rax
    1761:	48 29 c1             	sub    %rax,%rcx
    1764:	48 89 ca             	mov    %rcx,%rdx
    1767:	48 c1 e2 04          	shl    $0x4,%rdx
    176b:	48 8d 05 b6 29 00 00 	lea    0x29b6(%rip),%rax        # 4128 <temp_step_positions+0x8>
    1772:	8b 04 02             	mov    (%rdx,%rax,1),%eax
    1775:	89 85 bc fe ff ff    	mov    %eax,-0x144(%rbp)
    177b:	8b 85 a4 fe ff ff    	mov    -0x15c(%rbp),%eax
    1781:	48 63 c8             	movslq %eax,%rcx
    1784:	48 ba ab aa aa aa aa 	movabs $0xaaaaaaaaaaaaaaab,%rdx
    178b:	aa aa aa 
    178e:	48 89 c8             	mov    %rcx,%rax
    1791:	48 f7 e2             	mul    %rdx
    1794:	48 c1 ea 02          	shr    $0x2,%rdx
    1798:	48 89 d0             	mov    %rdx,%rax
    179b:	48 01 c0             	add    %rax,%rax
    179e:	48 01 d0             	add    %rdx,%rax
    17a1:	48 01 c0             	add    %rax,%rax
    17a4:	48 29 c1             	sub    %rax,%rcx
    17a7:	48 89 ca             	mov    %rcx,%rdx
    17aa:	48 c1 e2 04          	shl    $0x4,%rdx
    17ae:	48 8d 05 77 29 00 00 	lea    0x2977(%rip),%rax        # 412c <temp_step_positions+0xc>
    17b5:	8b 04 02             	mov    (%rdx,%rax,1),%eax
    17b8:	89 85 c0 fe ff ff    	mov    %eax,-0x140(%rbp)
    17be:	8b bd b8 fe ff ff    	mov    -0x148(%rbp),%edi
    17c4:	8b b5 b4 fe ff ff    	mov    -0x14c(%rbp),%esi
    17ca:	8b 95 b0 fe ff ff    	mov    -0x150(%rbp),%edx
    17d0:	48 8d 85 f0 fe ff ff 	lea    -0x110(%rbp),%rax
    17d7:	8b 8d c0 fe ff ff    	mov    -0x140(%rbp),%ecx
    17dd:	51                   	push   %rcx
    17de:	8b 8d bc fe ff ff    	mov    -0x144(%rbp),%ecx
    17e4:	51                   	push   %rcx
    17e5:	41 89 f9             	mov    %edi,%r9d
    17e8:	41 89 f0             	mov    %esi,%r8d
    17eb:	89 d1                	mov    %edx,%ecx
    17ed:	48 8d 15 11 0a 00 00 	lea    0xa11(%rip),%rdx        # 2205 <_IO_stdin_used+0x205>
    17f4:	be 00 01 00 00       	mov    $0x100,%esi
    17f9:	48 89 c7             	mov    %rax,%rdi
    17fc:	b8 00 00 00 00       	mov    $0x0,%eax
    1801:	e8 ca f9 ff ff       	call   11d0 <snprintf@plt>
    1806:	48 83 c4 10          	add    $0x10,%rsp
    180a:	48 8b 95 c8 fe ff ff 	mov    -0x138(%rbp),%rdx
    1811:	48 8d 85 f0 fe ff ff 	lea    -0x110(%rbp),%rax
    1818:	48 89 c6             	mov    %rax,%rsi
    181b:	48 8d 05 f6 09 00 00 	lea    0x9f6(%rip),%rax        # 2218 <_IO_stdin_used+0x218>
    1822:	48 89 c7             	mov    %rax,%rdi
    1825:	b8 00 00 00 00       	mov    $0x0,%eax
    182a:	e8 91 f9 ff ff       	call   11c0 <printf@plt>
    182f:	48 8d 85 f0 fe ff ff 	lea    -0x110(%rbp),%rax
    1836:	48 89 c7             	mov    %rax,%rdi
    1839:	e8 62 f9 ff ff       	call   11a0 <strlen@plt>
    183e:	48 89 c2             	mov    %rax,%rdx
    1841:	48 8d 8d f0 fe ff ff 	lea    -0x110(%rbp),%rcx
    1848:	8b 85 ac fe ff ff    	mov    -0x154(%rbp),%eax
    184e:	48 89 ce             	mov    %rcx,%rsi
    1851:	89 c7                	mov    %eax,%edi
    1853:	e8 38 f9 ff ff       	call   1190 <write@plt>
    1858:	48 8d 85 d0 fe ff ff 	lea    -0x130(%rbp),%rax
    185f:	ba 20 00 00 00       	mov    $0x20,%edx
    1864:	be 00 00 00 00       	mov    $0x0,%esi
    1869:	48 89 c7             	mov    %rax,%rdi
    186c:	e8 6f f9 ff ff       	call   11e0 <memset@plt>
    1871:	48 8d 8d d0 fe ff ff 	lea    -0x130(%rbp),%rcx
    1878:	8b 85 a8 fe ff ff    	mov    -0x158(%rbp),%eax
    187e:	ba 1f 00 00 00       	mov    $0x1f,%edx
    1883:	48 89 ce             	mov    %rcx,%rsi
    1886:	89 c7                	mov    %eax,%edi
    1888:	e8 73 f9 ff ff       	call   1200 <read@plt>
    188d:	89 85 c4 fe ff ff    	mov    %eax,-0x13c(%rbp)
    1893:	83 bd c4 fe ff ff 00 	cmpl   $0x0,-0x13c(%rbp)
    189a:	7e 74                	jle    1910 <chef_tasks_simulator+0x322>
    189c:	0f b6 85 d0 fe ff ff 	movzbl -0x130(%rbp),%eax
    18a3:	3c 31                	cmp    $0x31,%al
    18a5:	75 46                	jne    18ed <chef_tasks_simulator+0x2ff>
    18a7:	0f b6 85 d1 fe ff ff 	movzbl -0x12f(%rbp),%eax
    18ae:	3c 30                	cmp    $0x30,%al
    18b0:	75 3b                	jne    18ed <chef_tasks_simulator+0x2ff>
    18b2:	0f b6 85 d2 fe ff ff 	movzbl -0x12e(%rbp),%eax
    18b9:	3c 30                	cmp    $0x30,%al
    18bb:	75 30                	jne    18ed <chef_tasks_simulator+0x2ff>
    18bd:	8b 85 c4 fe ff ff    	mov    -0x13c(%rbp),%eax
    18c3:	48 98                	cltq
    18c5:	c6 84 05 d0 fe ff ff 	movb   $0x0,-0x130(%rbp,%rax,1)
    18cc:	00 
    18cd:	48 8d 85 d0 fe ff ff 	lea    -0x130(%rbp),%rax
    18d4:	48 89 c6             	mov    %rax,%rsi
    18d7:	48 8d 05 6a 09 00 00 	lea    0x96a(%rip),%rax        # 2248 <_IO_stdin_used+0x248>
    18de:	48 89 c7             	mov    %rax,%rdi
    18e1:	b8 00 00 00 00       	mov    $0x0,%eax
    18e6:	e8 d5 f8 ff ff       	call   11c0 <printf@plt>
    18eb:	eb 41                	jmp    192e <chef_tasks_simulator+0x340>
    18ed:	48 8d 85 d0 fe ff ff 	lea    -0x130(%rbp),%rax
    18f4:	48 89 c6             	mov    %rax,%rsi
    18f7:	48 8d 05 72 09 00 00 	lea    0x972(%rip),%rax        # 2270 <_IO_stdin_used+0x270>
    18fe:	48 89 c7             	mov    %rax,%rdi
    1901:	b8 00 00 00 00       	mov    $0x0,%eax
    1906:	e8 b5 f8 ff ff       	call   11c0 <printf@plt>
    190b:	e9 48 ff ff ff       	jmp    1858 <chef_tasks_simulator+0x26a>
    1910:	48 8d 05 89 09 00 00 	lea    0x989(%rip),%rax        # 22a0 <_IO_stdin_used+0x2a0>
    1917:	48 89 c7             	mov    %rax,%rdi
    191a:	e8 61 f8 ff ff       	call   1180 <puts@plt>
    191f:	bf 05 00 00 00       	mov    $0x5,%edi
    1924:	e8 67 f9 ff ff       	call   1290 <sleep@plt>
    1929:	e9 2a ff ff ff       	jmp    1858 <chef_tasks_simulator+0x26a>
    192e:	bf 01 00 00 00       	mov    $0x1,%edi
    1933:	e8 58 f9 ff ff       	call   1290 <sleep@plt>
    1938:	83 85 a4 fe ff ff 01 	addl   $0x1,-0x15c(%rbp)
    193f:	83 bd a4 fe ff ff 04 	cmpl   $0x4,-0x15c(%rbp)
    1946:	7f 0e                	jg     1956 <chef_tasks_simulator+0x368>
    1948:	8b 05 c2 26 00 00    	mov    0x26c2(%rip),%eax        # 4010 <running>
    194e:	85 c0                	test   %eax,%eax
    1950:	0f 85 6e fd ff ff    	jne    16c4 <chef_tasks_simulator+0xd6>
    1956:	8b 05 b4 26 00 00    	mov    0x26b4(%rip),%eax        # 4010 <running>
    195c:	85 c0                	test   %eax,%eax
    195e:	0f 85 51 fd ff ff    	jne    16b5 <chef_tasks_simulator+0xc7>
    1964:	8b 85 a8 fe ff ff    	mov    -0x158(%rbp),%eax
    196a:	89 c7                	mov    %eax,%edi
    196c:	e8 7f f8 ff ff       	call   11f0 <close@plt>
    1971:	8b 85 ac fe ff ff    	mov    -0x154(%rbp),%eax
    1977:	89 c7                	mov    %eax,%edi
    1979:	e8 72 f8 ff ff       	call   11f0 <close@plt>
    197e:	b8 00 00 00 00       	mov    $0x0,%eax
    1983:	48 8b 55 f8          	mov    -0x8(%rbp),%rdx
    1987:	64 48 2b 14 25 28 00 	sub    %fs:0x28,%rdx
    198e:	00 00 
    1990:	74 05                	je     1997 <chef_tasks_simulator+0x3a9>
    1992:	e8 19 f8 ff ff       	call   11b0 <__stack_chk_fail@plt>
    1997:	c9                   	leave
    1998:	c3                   	ret

0000000000001999 <main>:
    1999:	f3 0f 1e fa          	endbr64
    199d:	55                   	push   %rbp
    199e:	48 89 e5             	mov    %rsp,%rbp
    19a1:	48 8d 05 e1 f9 ff ff 	lea    -0x61f(%rip),%rax        # 1389 <handle_sigint>
    19a8:	48 89 c6             	mov    %rax,%rsi
    19ab:	bf 02 00 00 00       	mov    $0x2,%edi
    19b0:	e8 5b f8 ff ff       	call   1210 <signal@plt>
    19b5:	48 8d 05 78 06 00 00 	lea    0x678(%rip),%rax        # 2034 <_IO_stdin_used+0x34>
    19bc:	48 89 c7             	mov    %rax,%rdi
    19bf:	e8 ac f7 ff ff       	call   1170 <unlink@plt>
    19c4:	48 8d 05 7a 06 00 00 	lea    0x67a(%rip),%rax        # 2045 <_IO_stdin_used+0x45>
    19cb:	48 89 c7             	mov    %rax,%rdi
    19ce:	e8 9d f7 ff ff       	call   1170 <unlink@plt>
    19d3:	48 8d 05 84 06 00 00 	lea    0x684(%rip),%rax        # 205e <_IO_stdin_used+0x5e>
    19da:	48 89 c7             	mov    %rax,%rdi
    19dd:	e8 8e f7 ff ff       	call   1170 <unlink@plt>
    19e2:	be b6 01 00 00       	mov    $0x1b6,%esi
    19e7:	48 8d 05 46 06 00 00 	lea    0x646(%rip),%rax        # 2034 <_IO_stdin_used+0x34>
    19ee:	48 89 c7             	mov    %rax,%rdi
    19f1:	e8 2a f8 ff ff       	call   1220 <mkfifo@plt>
    19f6:	83 f8 ff             	cmp    $0xffffffff,%eax
    19f9:	75 19                	jne    1a14 <main+0x7b>
    19fb:	48 8d 05 ce 08 00 00 	lea    0x8ce(%rip),%rax        # 22d0 <_IO_stdin_used+0x2d0>
    1a02:	48 89 c7             	mov    %rax,%rdi
    1a05:	e8 46 f8 ff ff       	call   1250 <perror@plt>
    1a0a:	bf 01 00 00 00       	mov    $0x1,%edi
    1a0f:	e8 4c f8 ff ff       	call   1260 <exit@plt>
    1a14:	be b6 01 00 00       	mov    $0x1b6,%esi
    1a19:	48 8d 05 25 06 00 00 	lea    0x625(%rip),%rax        # 2045 <_IO_stdin_used+0x45>
    1a20:	48 89 c7             	mov    %rax,%rdi
    1a23:	e8 f8 f7 ff ff       	call   1220 <mkfifo@plt>
    1a28:	83 f8 ff             	cmp    $0xffffffff,%eax
    1a2b:	75 28                	jne    1a55 <main+0xbc>
    1a2d:	48 8d 05 c4 08 00 00 	lea    0x8c4(%rip),%rax        # 22f8 <_IO_stdin_used+0x2f8>
    1a34:	48 89 c7             	mov    %rax,%rdi
    1a37:	e8 14 f8 ff ff       	call   1250 <perror@plt>
    1a3c:	48 8d 05 f1 05 00 00 	lea    0x5f1(%rip),%rax        # 2034 <_IO_stdin_used+0x34>
    1a43:	48 89 c7             	mov    %rax,%rdi
    1a46:	e8 25 f7 ff ff       	call   1170 <unlink@plt>
    1a4b:	bf 01 00 00 00       	mov    $0x1,%edi
    1a50:	e8 0b f8 ff ff       	call   1260 <exit@plt>
    1a55:	be b6 01 00 00       	mov    $0x1b6,%esi
    1a5a:	48 8d 05 fd 05 00 00 	lea    0x5fd(%rip),%rax        # 205e <_IO_stdin_used+0x5e>
    1a61:	48 89 c7             	mov    %rax,%rdi
    1a64:	e8 b7 f7 ff ff       	call   1220 <mkfifo@plt>
    1a69:	83 f8 ff             	cmp    $0xffffffff,%eax
    1a6c:	75 37                	jne    1aa5 <main+0x10c>
    1a6e:	48 8d 05 b3 08 00 00 	lea    0x8b3(%rip),%rax        # 2328 <_IO_stdin_used+0x328>
    1a75:	48 89 c7             	mov    %rax,%rdi
    1a78:	e8 d3 f7 ff ff       	call   1250 <perror@plt>
    1a7d:	48 8d 05 b0 05 00 00 	lea    0x5b0(%rip),%rax        # 2034 <_IO_stdin_used+0x34>
    1a84:	48 89 c7             	mov    %rax,%rdi
    1a87:	e8 e4 f6 ff ff       	call   1170 <unlink@plt>
    1a8c:	48 8d 05 b2 05 00 00 	lea    0x5b2(%rip),%rax        # 2045 <_IO_stdin_used+0x45>
    1a93:	48 89 c7             	mov    %rax,%rdi
    1a96:	e8 d5 f6 ff ff       	call   1170 <unlink@plt>
    1a9b:	bf 01 00 00 00       	mov    $0x1,%edi
    1aa0:	e8 bb f7 ff ff       	call   1260 <exit@plt>
    1aa5:	b9 00 00 00 00       	mov    $0x0,%ecx
    1aaa:	48 8d 05 5e f9 ff ff 	lea    -0x6a2(%rip),%rax        # 140f <kitchen_simulator>
    1ab1:	48 89 c2             	mov    %rax,%rdx
    1ab4:	be 00 00 00 00       	mov    $0x0,%esi
    1ab9:	48 8d 05 28 27 00 00 	lea    0x2728(%rip),%rax        # 41e8 <kitchen_thread>
    1ac0:	48 89 c7             	mov    %rax,%rdi
    1ac3:	e8 68 f7 ff ff       	call   1230 <pthread_create@plt>
    1ac8:	85 c0                	test   %eax,%eax
    1aca:	74 46                	je     1b12 <main+0x179>
    1acc:	48 8d 05 85 08 00 00 	lea    0x885(%rip),%rax        # 2358 <_IO_stdin_used+0x358>
    1ad3:	48 89 c7             	mov    %rax,%rdi
    1ad6:	e8 75 f7 ff ff       	call   1250 <perror@plt>
    1adb:	48 8d 05 52 05 00 00 	lea    0x552(%rip),%rax        # 2034 <_IO_stdin_used+0x34>
    1ae2:	48 89 c7             	mov    %rax,%rdi
    1ae5:	e8 86 f6 ff ff       	call   1170 <unlink@plt>
    1aea:	48 8d 05 54 05 00 00 	lea    0x554(%rip),%rax        # 2045 <_IO_stdin_used+0x45>
    1af1:	48 89 c7             	mov    %rax,%rdi
    1af4:	e8 77 f6 ff ff       	call   1170 <unlink@plt>
    1af9:	48 8d 05 5e 05 00 00 	lea    0x55e(%rip),%rax        # 205e <_IO_stdin_used+0x5e>
    1b00:	48 89 c7             	mov    %rax,%rdi
    1b03:	e8 68 f6 ff ff       	call   1170 <unlink@plt>
    1b08:	bf 01 00 00 00       	mov    $0x1,%edi
    1b0d:	e8 4e f7 ff ff       	call   1260 <exit@plt>
    1b12:	b9 00 00 00 00       	mov    $0x0,%ecx
    1b17:	48 8d 05 d0 fa ff ff 	lea    -0x530(%rip),%rax        # 15ee <chef_tasks_simulator>
    1b1e:	48 89 c2             	mov    %rax,%rdx
    1b21:	be 00 00 00 00       	mov    $0x0,%esi
    1b26:	48 8d 05 c3 26 00 00 	lea    0x26c3(%rip),%rax        # 41f0 <chef_tasks_thread>
    1b2d:	48 89 c7             	mov    %rax,%rdi
    1b30:	e8 fb f6 ff ff       	call   1230 <pthread_create@plt>
    1b35:	85 c0                	test   %eax,%eax
    1b37:	74 46                	je     1b7f <main+0x1e6>
    1b39:	48 8d 05 48 08 00 00 	lea    0x848(%rip),%rax        # 2388 <_IO_stdin_used+0x388>
    1b40:	48 89 c7             	mov    %rax,%rdi
    1b43:	e8 08 f7 ff ff       	call   1250 <perror@plt>
    1b48:	48 8d 05 e5 04 00 00 	lea    0x4e5(%rip),%rax        # 2034 <_IO_stdin_used+0x34>
    1b4f:	48 89 c7             	mov    %rax,%rdi
    1b52:	e8 19 f6 ff ff       	call   1170 <unlink@plt>
    1b57:	48 8d 05 e7 04 00 00 	lea    0x4e7(%rip),%rax        # 2045 <_IO_stdin_used+0x45>
    1b5e:	48 89 c7             	mov    %rax,%rdi
    1b61:	e8 0a f6 ff ff       	call   1170 <unlink@plt>
    1b66:	48 8d 05 f1 04 00 00 	lea    0x4f1(%rip),%rax        # 205e <_IO_stdin_used+0x5e>
    1b6d:	48 89 c7             	mov    %rax,%rdi
    1b70:	e8 fb f5 ff ff       	call   1170 <unlink@plt>
    1b75:	bf 01 00 00 00       	mov    $0x1,%edi
    1b7a:	e8 e1 f6 ff ff       	call   1260 <exit@plt>
    1b7f:	48 8b 05 62 26 00 00 	mov    0x2662(%rip),%rax        # 41e8 <kitchen_thread>
    1b86:	be 00 00 00 00       	mov    $0x0,%esi
    1b8b:	48 89 c7             	mov    %rax,%rdi
    1b8e:	e8 dd f6 ff ff       	call   1270 <pthread_join@plt>
    1b93:	48 8b 05 56 26 00 00 	mov    0x2656(%rip),%rax        # 41f0 <chef_tasks_thread>
    1b9a:	be 00 00 00 00       	mov    $0x0,%esi
    1b9f:	48 89 c7             	mov    %rax,%rdi
    1ba2:	e8 c9 f6 ff ff       	call   1270 <pthread_join@plt>
    1ba7:	48 8d 05 86 04 00 00 	lea    0x486(%rip),%rax        # 2034 <_IO_stdin_used+0x34>
    1bae:	48 89 c7             	mov    %rax,%rdi
    1bb1:	e8 ba f5 ff ff       	call   1170 <unlink@plt>
    1bb6:	48 8d 05 88 04 00 00 	lea    0x488(%rip),%rax        # 2045 <_IO_stdin_used+0x45>
    1bbd:	48 89 c7             	mov    %rax,%rdi
    1bc0:	e8 ab f5 ff ff       	call   1170 <unlink@plt>
    1bc5:	48 8d 05 92 04 00 00 	lea    0x492(%rip),%rax        # 205e <_IO_stdin_used+0x5e>
    1bcc:	48 89 c7             	mov    %rax,%rdi
    1bcf:	e8 9c f5 ff ff       	call   1170 <unlink@plt>
    1bd4:	b8 00 00 00 00       	mov    $0x0,%eax
    1bd9:	5d                   	pop    %rbp
    1bda:	c3                   	ret

.fini 區段的反組譯：

0000000000001bdc <_fini>:
    1bdc:	f3 0f 1e fa          	endbr64
    1be0:	48 83 ec 08          	sub    $0x8,%rsp
    1be4:	48 83 c4 08          	add    $0x8,%rsp
    1be8:	c3                   	ret
