
gui      檔案格式 elf64-x86-64


.init 區段的反組譯：

0000000000001000 <_init>:
    1000:	f3 0f 1e fa          	endbr64
    1004:	48 83 ec 08          	sub    $0x8,%rsp
    1008:	48 8b 05 d9 3f 00 00 	mov    0x3fd9(%rip),%rax        # 4fe8 <__gmon_start__@Base>
    100f:	48 85 c0             	test   %rax,%rax
    1012:	74 02                	je     1016 <_init+0x16>
    1014:	ff d0                	call   *%rax
    1016:	48 83 c4 08          	add    $0x8,%rsp
    101a:	c3                   	ret

.plt 區段的反組譯：

0000000000001020 <.plt>:
    1020:	ff 35 a2 3e 00 00    	push   0x3ea2(%rip)        # 4ec8 <_GLOBAL_OFFSET_TABLE_+0x8>
    1026:	ff 25 a4 3e 00 00    	jmp    *0x3ea4(%rip)        # 4ed0 <_GLOBAL_OFFSET_TABLE_+0x10>
    102c:	0f 1f 40 00          	nopl   0x0(%rax)
    1030:	f3 0f 1e fa          	endbr64
    1034:	68 00 00 00 00       	push   $0x0
    1039:	e9 e2 ff ff ff       	jmp    1020 <_init+0x20>
    103e:	66 90                	xchg   %ax,%ax
    1040:	f3 0f 1e fa          	endbr64
    1044:	68 01 00 00 00       	push   $0x1
    1049:	e9 d2 ff ff ff       	jmp    1020 <_init+0x20>
    104e:	66 90                	xchg   %ax,%ax
    1050:	f3 0f 1e fa          	endbr64
    1054:	68 02 00 00 00       	push   $0x2
    1059:	e9 c2 ff ff ff       	jmp    1020 <_init+0x20>
    105e:	66 90                	xchg   %ax,%ax
    1060:	f3 0f 1e fa          	endbr64
    1064:	68 03 00 00 00       	push   $0x3
    1069:	e9 b2 ff ff ff       	jmp    1020 <_init+0x20>
    106e:	66 90                	xchg   %ax,%ax
    1070:	f3 0f 1e fa          	endbr64
    1074:	68 04 00 00 00       	push   $0x4
    1079:	e9 a2 ff ff ff       	jmp    1020 <_init+0x20>
    107e:	66 90                	xchg   %ax,%ax
    1080:	f3 0f 1e fa          	endbr64
    1084:	68 05 00 00 00       	push   $0x5
    1089:	e9 92 ff ff ff       	jmp    1020 <_init+0x20>
    108e:	66 90                	xchg   %ax,%ax
    1090:	f3 0f 1e fa          	endbr64
    1094:	68 06 00 00 00       	push   $0x6
    1099:	e9 82 ff ff ff       	jmp    1020 <_init+0x20>
    109e:	66 90                	xchg   %ax,%ax
    10a0:	f3 0f 1e fa          	endbr64
    10a4:	68 07 00 00 00       	push   $0x7
    10a9:	e9 72 ff ff ff       	jmp    1020 <_init+0x20>
    10ae:	66 90                	xchg   %ax,%ax
    10b0:	f3 0f 1e fa          	endbr64
    10b4:	68 08 00 00 00       	push   $0x8
    10b9:	e9 62 ff ff ff       	jmp    1020 <_init+0x20>
    10be:	66 90                	xchg   %ax,%ax
    10c0:	f3 0f 1e fa          	endbr64
    10c4:	68 09 00 00 00       	push   $0x9
    10c9:	e9 52 ff ff ff       	jmp    1020 <_init+0x20>
    10ce:	66 90                	xchg   %ax,%ax
    10d0:	f3 0f 1e fa          	endbr64
    10d4:	68 0a 00 00 00       	push   $0xa
    10d9:	e9 42 ff ff ff       	jmp    1020 <_init+0x20>
    10de:	66 90                	xchg   %ax,%ax
    10e0:	f3 0f 1e fa          	endbr64
    10e4:	68 0b 00 00 00       	push   $0xb
    10e9:	e9 32 ff ff ff       	jmp    1020 <_init+0x20>
    10ee:	66 90                	xchg   %ax,%ax
    10f0:	f3 0f 1e fa          	endbr64
    10f4:	68 0c 00 00 00       	push   $0xc
    10f9:	e9 22 ff ff ff       	jmp    1020 <_init+0x20>
    10fe:	66 90                	xchg   %ax,%ax
    1100:	f3 0f 1e fa          	endbr64
    1104:	68 0d 00 00 00       	push   $0xd
    1109:	e9 12 ff ff ff       	jmp    1020 <_init+0x20>
    110e:	66 90                	xchg   %ax,%ax
    1110:	f3 0f 1e fa          	endbr64
    1114:	68 0e 00 00 00       	push   $0xe
    1119:	e9 02 ff ff ff       	jmp    1020 <_init+0x20>
    111e:	66 90                	xchg   %ax,%ax
    1120:	f3 0f 1e fa          	endbr64
    1124:	68 0f 00 00 00       	push   $0xf
    1129:	e9 f2 fe ff ff       	jmp    1020 <_init+0x20>
    112e:	66 90                	xchg   %ax,%ax
    1130:	f3 0f 1e fa          	endbr64
    1134:	68 10 00 00 00       	push   $0x10
    1139:	e9 e2 fe ff ff       	jmp    1020 <_init+0x20>
    113e:	66 90                	xchg   %ax,%ax
    1140:	f3 0f 1e fa          	endbr64
    1144:	68 11 00 00 00       	push   $0x11
    1149:	e9 d2 fe ff ff       	jmp    1020 <_init+0x20>
    114e:	66 90                	xchg   %ax,%ax
    1150:	f3 0f 1e fa          	endbr64
    1154:	68 12 00 00 00       	push   $0x12
    1159:	e9 c2 fe ff ff       	jmp    1020 <_init+0x20>
    115e:	66 90                	xchg   %ax,%ax
    1160:	f3 0f 1e fa          	endbr64
    1164:	68 13 00 00 00       	push   $0x13
    1169:	e9 b2 fe ff ff       	jmp    1020 <_init+0x20>
    116e:	66 90                	xchg   %ax,%ax
    1170:	f3 0f 1e fa          	endbr64
    1174:	68 14 00 00 00       	push   $0x14
    1179:	e9 a2 fe ff ff       	jmp    1020 <_init+0x20>
    117e:	66 90                	xchg   %ax,%ax
    1180:	f3 0f 1e fa          	endbr64
    1184:	68 15 00 00 00       	push   $0x15
    1189:	e9 92 fe ff ff       	jmp    1020 <_init+0x20>
    118e:	66 90                	xchg   %ax,%ax
    1190:	f3 0f 1e fa          	endbr64
    1194:	68 16 00 00 00       	push   $0x16
    1199:	e9 82 fe ff ff       	jmp    1020 <_init+0x20>
    119e:	66 90                	xchg   %ax,%ax
    11a0:	f3 0f 1e fa          	endbr64
    11a4:	68 17 00 00 00       	push   $0x17
    11a9:	e9 72 fe ff ff       	jmp    1020 <_init+0x20>
    11ae:	66 90                	xchg   %ax,%ax
    11b0:	f3 0f 1e fa          	endbr64
    11b4:	68 18 00 00 00       	push   $0x18
    11b9:	e9 62 fe ff ff       	jmp    1020 <_init+0x20>
    11be:	66 90                	xchg   %ax,%ax
    11c0:	f3 0f 1e fa          	endbr64
    11c4:	68 19 00 00 00       	push   $0x19
    11c9:	e9 52 fe ff ff       	jmp    1020 <_init+0x20>
    11ce:	66 90                	xchg   %ax,%ax
    11d0:	f3 0f 1e fa          	endbr64
    11d4:	68 1a 00 00 00       	push   $0x1a
    11d9:	e9 42 fe ff ff       	jmp    1020 <_init+0x20>
    11de:	66 90                	xchg   %ax,%ax
    11e0:	f3 0f 1e fa          	endbr64
    11e4:	68 1b 00 00 00       	push   $0x1b
    11e9:	e9 32 fe ff ff       	jmp    1020 <_init+0x20>
    11ee:	66 90                	xchg   %ax,%ax
    11f0:	f3 0f 1e fa          	endbr64
    11f4:	68 1c 00 00 00       	push   $0x1c
    11f9:	e9 22 fe ff ff       	jmp    1020 <_init+0x20>
    11fe:	66 90                	xchg   %ax,%ax
    1200:	f3 0f 1e fa          	endbr64
    1204:	68 1d 00 00 00       	push   $0x1d
    1209:	e9 12 fe ff ff       	jmp    1020 <_init+0x20>
    120e:	66 90                	xchg   %ax,%ax
    1210:	f3 0f 1e fa          	endbr64
    1214:	68 1e 00 00 00       	push   $0x1e
    1219:	e9 02 fe ff ff       	jmp    1020 <_init+0x20>
    121e:	66 90                	xchg   %ax,%ax
    1220:	f3 0f 1e fa          	endbr64
    1224:	68 1f 00 00 00       	push   $0x1f
    1229:	e9 f2 fd ff ff       	jmp    1020 <_init+0x20>
    122e:	66 90                	xchg   %ax,%ax

.plt.got 區段的反組譯：

0000000000001230 <__cxa_finalize@plt>:
    1230:	f3 0f 1e fa          	endbr64
    1234:	ff 25 be 3d 00 00    	jmp    *0x3dbe(%rip)        # 4ff8 <__cxa_finalize@GLIBC_2.2.5>
    123a:	66 0f 1f 44 00 00    	nopw   0x0(%rax,%rax,1)

.plt.sec 區段的反組譯：

0000000000001240 <curs_set@plt>:
    1240:	f3 0f 1e fa          	endbr64
    1244:	ff 25 8e 3c 00 00    	jmp    *0x3c8e(%rip)        # 4ed8 <curs_set@NCURSES6_TINFO_5.0.19991023>
    124a:	66 0f 1f 44 00 00    	nopw   0x0(%rax,%rax,1)

0000000000001250 <puts@plt>:
    1250:	f3 0f 1e fa          	endbr64
    1254:	ff 25 86 3c 00 00    	jmp    *0x3c86(%rip)        # 4ee0 <puts@GLIBC_2.2.5>
    125a:	66 0f 1f 44 00 00    	nopw   0x0(%rax,%rax,1)

0000000000001260 <write@plt>:
    1260:	f3 0f 1e fa          	endbr64
    1264:	ff 25 7e 3c 00 00    	jmp    *0x3c7e(%rip)        # 4ee8 <write@GLIBC_2.2.5>
    126a:	66 0f 1f 44 00 00    	nopw   0x0(%rax,%rax,1)

0000000000001270 <wgetch@plt>:
    1270:	f3 0f 1e fa          	endbr64
    1274:	ff 25 76 3c 00 00    	jmp    *0x3c76(%rip)        # 4ef0 <wgetch@NCURSES6_5.0.19991023>
    127a:	66 0f 1f 44 00 00    	nopw   0x0(%rax,%rax,1)

0000000000001280 <wclear@plt>:
    1280:	f3 0f 1e fa          	endbr64
    1284:	ff 25 6e 3c 00 00    	jmp    *0x3c6e(%rip)        # 4ef8 <wclear@NCURSES6_5.0.19991023>
    128a:	66 0f 1f 44 00 00    	nopw   0x0(%rax,%rax,1)

0000000000001290 <getmaxx@plt>:
    1290:	f3 0f 1e fa          	endbr64
    1294:	ff 25 66 3c 00 00    	jmp    *0x3c66(%rip)        # 4f00 <getmaxx@NCURSES6_5.6.20061217>
    129a:	66 0f 1f 44 00 00    	nopw   0x0(%rax,%rax,1)

00000000000012a0 <getmaxy@plt>:
    12a0:	f3 0f 1e fa          	endbr64
    12a4:	ff 25 5e 3c 00 00    	jmp    *0x3c5e(%rip)        # 4f08 <getmaxy@NCURSES6_5.6.20061217>
    12aa:	66 0f 1f 44 00 00    	nopw   0x0(%rax,%rax,1)

00000000000012b0 <strlen@plt>:
    12b0:	f3 0f 1e fa          	endbr64
    12b4:	ff 25 56 3c 00 00    	jmp    *0x3c56(%rip)        # 4f10 <strlen@GLIBC_2.2.5>
    12ba:	66 0f 1f 44 00 00    	nopw   0x0(%rax,%rax,1)

00000000000012c0 <noecho@plt>:
    12c0:	f3 0f 1e fa          	endbr64
    12c4:	ff 25 4e 3c 00 00    	jmp    *0x3c4e(%rip)        # 4f18 <noecho@NCURSES6_5.0.19991023>
    12ca:	66 0f 1f 44 00 00    	nopw   0x0(%rax,%rax,1)

00000000000012d0 <__stack_chk_fail@plt>:
    12d0:	f3 0f 1e fa          	endbr64
    12d4:	ff 25 46 3c 00 00    	jmp    *0x3c46(%rip)        # 4f20 <__stack_chk_fail@GLIBC_2.4>
    12da:	66 0f 1f 44 00 00    	nopw   0x0(%rax,%rax,1)

00000000000012e0 <snprintf@plt>:
    12e0:	f3 0f 1e fa          	endbr64
    12e4:	ff 25 3e 3c 00 00    	jmp    *0x3c3e(%rip)        # 4f28 <snprintf@GLIBC_2.2.5>
    12ea:	66 0f 1f 44 00 00    	nopw   0x0(%rax,%rax,1)

00000000000012f0 <initscr@plt>:
    12f0:	f3 0f 1e fa          	endbr64
    12f4:	ff 25 36 3c 00 00    	jmp    *0x3c36(%rip)        # 4f30 <initscr@NCURSES6_5.0.19991023>
    12fa:	66 0f 1f 44 00 00    	nopw   0x0(%rax,%rax,1)

0000000000001300 <wrefresh@plt>:
    1300:	f3 0f 1e fa          	endbr64
    1304:	ff 25 2e 3c 00 00    	jmp    *0x3c2e(%rip)        # 4f38 <wrefresh@NCURSES6_5.0.19991023>
    130a:	66 0f 1f 44 00 00    	nopw   0x0(%rax,%rax,1)

0000000000001310 <close@plt>:
    1310:	f3 0f 1e fa          	endbr64
    1314:	ff 25 26 3c 00 00    	jmp    *0x3c26(%rip)        # 4f40 <close@GLIBC_2.2.5>
    131a:	66 0f 1f 44 00 00    	nopw   0x0(%rax,%rax,1)

0000000000001320 <wattr_on@plt>:
    1320:	f3 0f 1e fa          	endbr64
    1324:	ff 25 1e 3c 00 00    	jmp    *0x3c1e(%rip)        # 4f48 <wattr_on@NCURSES6_5.0.19991023>
    132a:	66 0f 1f 44 00 00    	nopw   0x0(%rax,%rax,1)

0000000000001330 <read@plt>:
    1330:	f3 0f 1e fa          	endbr64
    1334:	ff 25 16 3c 00 00    	jmp    *0x3c16(%rip)        # 4f50 <read@GLIBC_2.2.5>
    133a:	66 0f 1f 44 00 00    	nopw   0x0(%rax,%rax,1)

0000000000001340 <strcmp@plt>:
    1340:	f3 0f 1e fa          	endbr64
    1344:	ff 25 0e 3c 00 00    	jmp    *0x3c0e(%rip)        # 4f58 <strcmp@GLIBC_2.2.5>
    134a:	66 0f 1f 44 00 00    	nopw   0x0(%rax,%rax,1)

0000000000001350 <mvprintw@plt>:
    1350:	f3 0f 1e fa          	endbr64
    1354:	ff 25 06 3c 00 00    	jmp    *0x3c06(%rip)        # 4f60 <mvprintw@NCURSES6_5.0.19991023>
    135a:	66 0f 1f 44 00 00    	nopw   0x0(%rax,%rax,1)

0000000000001360 <pthread_mutex_unlock@plt>:
    1360:	f3 0f 1e fa          	endbr64
    1364:	ff 25 fe 3b 00 00    	jmp    *0x3bfe(%rip)        # 4f68 <pthread_mutex_unlock@GLIBC_2.2.5>
    136a:	66 0f 1f 44 00 00    	nopw   0x0(%rax,%rax,1)

0000000000001370 <cbreak@plt>:
    1370:	f3 0f 1e fa          	endbr64
    1374:	ff 25 f6 3b 00 00    	jmp    *0x3bf6(%rip)        # 4f70 <cbreak@NCURSES6_TINFO_5.0.19991023>
    137a:	66 0f 1f 44 00 00    	nopw   0x0(%rax,%rax,1)

0000000000001380 <pthread_exit@plt>:
    1380:	f3 0f 1e fa          	endbr64
    1384:	ff 25 ee 3b 00 00    	jmp    *0x3bee(%rip)        # 4f78 <pthread_exit@GLIBC_2.2.5>
    138a:	66 0f 1f 44 00 00    	nopw   0x0(%rax,%rax,1)

0000000000001390 <__isoc99_sscanf@plt>:
    1390:	f3 0f 1e fa          	endbr64
    1394:	ff 25 e6 3b 00 00    	jmp    *0x3be6(%rip)        # 4f80 <__isoc99_sscanf@GLIBC_2.7>
    139a:	66 0f 1f 44 00 00    	nopw   0x0(%rax,%rax,1)

00000000000013a0 <pthread_create@plt>:
    13a0:	f3 0f 1e fa          	endbr64
    13a4:	ff 25 de 3b 00 00    	jmp    *0x3bde(%rip)        # 4f88 <pthread_create@GLIBC_2.34>
    13aa:	66 0f 1f 44 00 00    	nopw   0x0(%rax,%rax,1)

00000000000013b0 <open@plt>:
    13b0:	f3 0f 1e fa          	endbr64
    13b4:	ff 25 d6 3b 00 00    	jmp    *0x3bd6(%rip)        # 4f90 <open@GLIBC_2.2.5>
    13ba:	66 0f 1f 44 00 00    	nopw   0x0(%rax,%rax,1)

00000000000013c0 <perror@plt>:
    13c0:	f3 0f 1e fa          	endbr64
    13c4:	ff 25 ce 3b 00 00    	jmp    *0x3bce(%rip)        # 4f98 <perror@GLIBC_2.2.5>
    13ca:	66 0f 1f 44 00 00    	nopw   0x0(%rax,%rax,1)

00000000000013d0 <waddch@plt>:
    13d0:	f3 0f 1e fa          	endbr64
    13d4:	ff 25 c6 3b 00 00    	jmp    *0x3bc6(%rip)        # 4fa0 <waddch@NCURSES6_5.0.19991023>
    13da:	66 0f 1f 44 00 00    	nopw   0x0(%rax,%rax,1)

00000000000013e0 <exit@plt>:
    13e0:	f3 0f 1e fa          	endbr64
    13e4:	ff 25 be 3b 00 00    	jmp    *0x3bbe(%rip)        # 4fa8 <exit@GLIBC_2.2.5>
    13ea:	66 0f 1f 44 00 00    	nopw   0x0(%rax,%rax,1)

00000000000013f0 <endwin@plt>:
    13f0:	f3 0f 1e fa          	endbr64
    13f4:	ff 25 b6 3b 00 00    	jmp    *0x3bb6(%rip)        # 4fb0 <endwin@NCURSES6_5.0.19991023>
    13fa:	66 0f 1f 44 00 00    	nopw   0x0(%rax,%rax,1)

0000000000001400 <pthread_join@plt>:
    1400:	f3 0f 1e fa          	endbr64
    1404:	ff 25 ae 3b 00 00    	jmp    *0x3bae(%rip)        # 4fb8 <pthread_join@GLIBC_2.34>
    140a:	66 0f 1f 44 00 00    	nopw   0x0(%rax,%rax,1)

0000000000001410 <wattr_off@plt>:
    1410:	f3 0f 1e fa          	endbr64
    1414:	ff 25 a6 3b 00 00    	jmp    *0x3ba6(%rip)        # 4fc0 <wattr_off@NCURSES6_5.0.19991023>
    141a:	66 0f 1f 44 00 00    	nopw   0x0(%rax,%rax,1)

0000000000001420 <pthread_mutex_lock@plt>:
    1420:	f3 0f 1e fa          	endbr64
    1424:	ff 25 9e 3b 00 00    	jmp    *0x3b9e(%rip)        # 4fc8 <pthread_mutex_lock@GLIBC_2.2.5>
    142a:	66 0f 1f 44 00 00    	nopw   0x0(%rax,%rax,1)

0000000000001430 <usleep@plt>:
    1430:	f3 0f 1e fa          	endbr64
    1434:	ff 25 96 3b 00 00    	jmp    *0x3b96(%rip)        # 4fd0 <usleep@GLIBC_2.2.5>
    143a:	66 0f 1f 44 00 00    	nopw   0x0(%rax,%rax,1)

.text 區段的反組譯：

0000000000001440 <_start>:
    1440:	f3 0f 1e fa          	endbr64
    1444:	31 ed                	xor    %ebp,%ebp
    1446:	49 89 d1             	mov    %rdx,%r9
    1449:	5e                   	pop    %rsi
    144a:	48 89 e2             	mov    %rsp,%rdx
    144d:	48 83 e4 f0          	and    $0xfffffffffffffff0,%rsp
    1451:	50                   	push   %rax
    1452:	54                   	push   %rsp
    1453:	45 31 c0             	xor    %r8d,%r8d
    1456:	31 c9                	xor    %ecx,%ecx
    1458:	48 8d 3d f3 0f 00 00 	lea    0xff3(%rip),%rdi        # 2452 <main>
    145f:	ff 15 73 3b 00 00    	call   *0x3b73(%rip)        # 4fd8 <__libc_start_main@GLIBC_2.34>
    1465:	f4                   	hlt
    1466:	66 2e 0f 1f 84 00 00 	cs nopw 0x0(%rax,%rax,1)
    146d:	00 00 00 

0000000000001470 <deregister_tm_clones>:
    1470:	48 8d 3d 71 3c 00 00 	lea    0x3c71(%rip),%rdi        # 50e8 <__TMC_END__>
    1477:	48 8d 05 6a 3c 00 00 	lea    0x3c6a(%rip),%rax        # 50e8 <__TMC_END__>
    147e:	48 39 f8             	cmp    %rdi,%rax
    1481:	74 15                	je     1498 <deregister_tm_clones+0x28>
    1483:	48 8b 05 56 3b 00 00 	mov    0x3b56(%rip),%rax        # 4fe0 <_ITM_deregisterTMCloneTable@Base>
    148a:	48 85 c0             	test   %rax,%rax
    148d:	74 09                	je     1498 <deregister_tm_clones+0x28>
    148f:	ff e0                	jmp    *%rax
    1491:	0f 1f 80 00 00 00 00 	nopl   0x0(%rax)
    1498:	c3                   	ret
    1499:	0f 1f 80 00 00 00 00 	nopl   0x0(%rax)

00000000000014a0 <register_tm_clones>:
    14a0:	48 8d 3d 41 3c 00 00 	lea    0x3c41(%rip),%rdi        # 50e8 <__TMC_END__>
    14a7:	48 8d 35 3a 3c 00 00 	lea    0x3c3a(%rip),%rsi        # 50e8 <__TMC_END__>
    14ae:	48 29 fe             	sub    %rdi,%rsi
    14b1:	48 89 f0             	mov    %rsi,%rax
    14b4:	48 c1 ee 3f          	shr    $0x3f,%rsi
    14b8:	48 c1 f8 03          	sar    $0x3,%rax
    14bc:	48 01 c6             	add    %rax,%rsi
    14bf:	48 d1 fe             	sar    $1,%rsi
    14c2:	74 14                	je     14d8 <register_tm_clones+0x38>
    14c4:	48 8b 05 25 3b 00 00 	mov    0x3b25(%rip),%rax        # 4ff0 <_ITM_registerTMCloneTable@Base>
    14cb:	48 85 c0             	test   %rax,%rax
    14ce:	74 08                	je     14d8 <register_tm_clones+0x38>
    14d0:	ff e0                	jmp    *%rax
    14d2:	66 0f 1f 44 00 00    	nopw   0x0(%rax,%rax,1)
    14d8:	c3                   	ret
    14d9:	0f 1f 80 00 00 00 00 	nopl   0x0(%rax)

00000000000014e0 <__do_global_dtors_aux>:
    14e0:	f3 0f 1e fa          	endbr64
    14e4:	80 3d 1d 3c 00 00 00 	cmpb   $0x0,0x3c1d(%rip)        # 5108 <completed.0>
    14eb:	75 2b                	jne    1518 <__do_global_dtors_aux+0x38>
    14ed:	55                   	push   %rbp
    14ee:	48 83 3d 02 3b 00 00 	cmpq   $0x0,0x3b02(%rip)        # 4ff8 <__cxa_finalize@GLIBC_2.2.5>
    14f5:	00 
    14f6:	48 89 e5             	mov    %rsp,%rbp
    14f9:	74 0c                	je     1507 <__do_global_dtors_aux+0x27>
    14fb:	48 8b 3d 06 3b 00 00 	mov    0x3b06(%rip),%rdi        # 5008 <__dso_handle>
    1502:	e8 29 fd ff ff       	call   1230 <__cxa_finalize@plt>
    1507:	e8 64 ff ff ff       	call   1470 <deregister_tm_clones>
    150c:	c6 05 f5 3b 00 00 01 	movb   $0x1,0x3bf5(%rip)        # 5108 <completed.0>
    1513:	5d                   	pop    %rbp
    1514:	c3                   	ret
    1515:	0f 1f 00             	nopl   (%rax)
    1518:	c3                   	ret
    1519:	0f 1f 80 00 00 00 00 	nopl   0x0(%rax)

0000000000001520 <frame_dummy>:
    1520:	f3 0f 1e fa          	endbr64
    1524:	e9 77 ff ff ff       	jmp    14a0 <register_tm_clones>

0000000000001529 <init_scaling>:
    1529:	f3 0f 1e fa          	endbr64
    152d:	55                   	push   %rbp
    152e:	48 89 e5             	mov    %rsp,%rbp
    1531:	48 83 ec 10          	sub    $0x10,%rsp
    1535:	48 8b 05 c4 3b 00 00 	mov    0x3bc4(%rip),%rax        # 5100 <stdscr@NCURSES6_TINFO_5.0.19991023>
    153c:	48 89 c7             	mov    %rax,%rdi
    153f:	e8 5c fd ff ff       	call   12a0 <getmaxy@plt>
    1544:	89 45 f4             	mov    %eax,-0xc(%rbp)
    1547:	48 8b 05 b2 3b 00 00 	mov    0x3bb2(%rip),%rax        # 5100 <stdscr@NCURSES6_TINFO_5.0.19991023>
    154e:	48 89 c7             	mov    %rax,%rdi
    1551:	e8 3a fd ff ff       	call   1290 <getmaxx@plt>
    1556:	89 45 f8             	mov    %eax,-0x8(%rbp)
    1559:	83 7d f8 63          	cmpl   $0x63,-0x8(%rbp)
    155d:	7e 06                	jle    1565 <init_scaling+0x3c>
    155f:	83 7d f4 1d          	cmpl   $0x1d,-0xc(%rbp)
    1563:	7f 1e                	jg     1583 <init_scaling+0x5a>
    1565:	e8 86 fe ff ff       	call   13f0 <endwin@plt>
    156a:	48 8d 05 97 1a 00 00 	lea    0x1a97(%rip),%rax        # 3008 <_IO_stdin_used+0x8>
    1571:	48 89 c7             	mov    %rax,%rdi
    1574:	e8 d7 fc ff ff       	call   1250 <puts@plt>
    1579:	bf 01 00 00 00       	mov    $0x1,%edi
    157e:	e8 5d fe ff ff       	call   13e0 <exit@plt>
    1583:	be 02 08 00 00       	mov    $0x802,%esi
    1588:	48 8d 05 b7 1a 00 00 	lea    0x1ab7(%rip),%rax        # 3046 <_IO_stdin_used+0x46>
    158f:	48 89 c7             	mov    %rax,%rdi
    1592:	b8 00 00 00 00       	mov    $0x0,%eax
    1597:	e8 14 fe ff ff       	call   13b0 <open@plt>
    159c:	89 45 fc             	mov    %eax,-0x4(%rbp)
    159f:	83 7d fc 00          	cmpl   $0x0,-0x4(%rbp)
    15a3:	79 19                	jns    15be <init_scaling+0x95>
    15a5:	48 8d 05 aa 1a 00 00 	lea    0x1aaa(%rip),%rax        # 3056 <_IO_stdin_used+0x56>
    15ac:	48 89 c7             	mov    %rax,%rdi
    15af:	e8 0c fe ff ff       	call   13c0 <perror@plt>
    15b4:	bf 01 00 00 00       	mov    $0x1,%edi
    15b9:	e8 22 fe ff ff       	call   13e0 <exit@plt>
    15be:	90                   	nop
    15bf:	c9                   	leave
    15c0:	c3                   	ret

00000000000015c1 <is_blocked>:
    15c1:	f3 0f 1e fa          	endbr64
    15c5:	55                   	push   %rbp
    15c6:	48 89 e5             	mov    %rsp,%rbp
    15c9:	89 7d dc             	mov    %edi,-0x24(%rbp)
    15cc:	89 75 d8             	mov    %esi,-0x28(%rbp)
    15cf:	c7 45 ec 00 00 00 00 	movl   $0x0,-0x14(%rbp)
    15d6:	e9 99 00 00 00       	jmp    1674 <is_blocked+0xb3>
    15db:	8b 45 ec             	mov    -0x14(%rbp),%eax
    15de:	48 98                	cltq
    15e0:	48 c1 e0 04          	shl    $0x4,%rax
    15e4:	48 89 c2             	mov    %rax,%rdx
    15e7:	48 8d 05 92 3a 00 00 	lea    0x3a92(%rip),%rax        # 5080 <boxes>
    15ee:	8b 04 02             	mov    (%rdx,%rax,1),%eax
    15f1:	89 45 f0             	mov    %eax,-0x10(%rbp)
    15f4:	8b 45 ec             	mov    -0x14(%rbp),%eax
    15f7:	48 98                	cltq
    15f9:	48 c1 e0 04          	shl    $0x4,%rax
    15fd:	48 89 c2             	mov    %rax,%rdx
    1600:	48 8d 05 7d 3a 00 00 	lea    0x3a7d(%rip),%rax        # 5084 <boxes+0x4>
    1607:	8b 04 02             	mov    (%rdx,%rax,1),%eax
    160a:	89 45 f4             	mov    %eax,-0xc(%rbp)
    160d:	8b 45 ec             	mov    -0x14(%rbp),%eax
    1610:	48 98                	cltq
    1612:	48 c1 e0 04          	shl    $0x4,%rax
    1616:	48 89 c2             	mov    %rax,%rdx
    1619:	48 8d 05 68 3a 00 00 	lea    0x3a68(%rip),%rax        # 5088 <boxes+0x8>
    1620:	8b 04 02             	mov    (%rdx,%rax,1),%eax
    1623:	89 45 f8             	mov    %eax,-0x8(%rbp)
    1626:	8b 45 ec             	mov    -0x14(%rbp),%eax
    1629:	48 98                	cltq
    162b:	48 c1 e0 04          	shl    $0x4,%rax
    162f:	48 89 c2             	mov    %rax,%rdx
    1632:	48 8d 05 53 3a 00 00 	lea    0x3a53(%rip),%rax        # 508c <boxes+0xc>
    1639:	8b 04 02             	mov    (%rdx,%rax,1),%eax
    163c:	89 45 fc             	mov    %eax,-0x4(%rbp)
    163f:	8b 45 dc             	mov    -0x24(%rbp),%eax
    1642:	3b 45 f4             	cmp    -0xc(%rbp),%eax
    1645:	7c 29                	jl     1670 <is_blocked+0xaf>
    1647:	8b 55 f4             	mov    -0xc(%rbp),%edx
    164a:	8b 45 fc             	mov    -0x4(%rbp),%eax
    164d:	01 d0                	add    %edx,%eax
    164f:	39 45 dc             	cmp    %eax,-0x24(%rbp)
    1652:	7d 1c                	jge    1670 <is_blocked+0xaf>
    1654:	8b 45 d8             	mov    -0x28(%rbp),%eax
    1657:	3b 45 f0             	cmp    -0x10(%rbp),%eax
    165a:	7c 14                	jl     1670 <is_blocked+0xaf>
    165c:	8b 55 f0             	mov    -0x10(%rbp),%edx
    165f:	8b 45 f8             	mov    -0x8(%rbp),%eax
    1662:	01 d0                	add    %edx,%eax
    1664:	39 45 d8             	cmp    %eax,-0x28(%rbp)
    1667:	7d 07                	jge    1670 <is_blocked+0xaf>
    1669:	b8 01 00 00 00       	mov    $0x1,%eax
    166e:	eb 18                	jmp    1688 <is_blocked+0xc7>
    1670:	83 45 ec 01          	addl   $0x1,-0x14(%rbp)
    1674:	8b 05 66 3a 00 00    	mov    0x3a66(%rip),%eax        # 50e0 <nboxes>
    167a:	39 45 ec             	cmp    %eax,-0x14(%rbp)
    167d:	0f 8c 58 ff ff ff    	jl     15db <is_blocked+0x1a>
    1683:	b8 00 00 00 00       	mov    $0x0,%eax
    1688:	5d                   	pop    %rbp
    1689:	c3                   	ret

000000000000168a <clamp_target>:
    168a:	f3 0f 1e fa          	endbr64
    168e:	55                   	push   %rbp
    168f:	48 89 e5             	mov    %rsp,%rbp
    1692:	48 89 7d c8          	mov    %rdi,-0x38(%rbp)
    1696:	48 89 75 c0          	mov    %rsi,-0x40(%rbp)
    169a:	c7 45 d8 00 00 00 00 	movl   $0x0,-0x28(%rbp)
    16a1:	e9 84 01 00 00       	jmp    182a <clamp_target+0x1a0>
    16a6:	8b 45 d8             	mov    -0x28(%rbp),%eax
    16a9:	48 98                	cltq
    16ab:	48 c1 e0 04          	shl    $0x4,%rax
    16af:	48 89 c2             	mov    %rax,%rdx
    16b2:	48 8d 05 c7 39 00 00 	lea    0x39c7(%rip),%rax        # 5080 <boxes>
    16b9:	8b 04 02             	mov    (%rdx,%rax,1),%eax
    16bc:	89 45 e0             	mov    %eax,-0x20(%rbp)
    16bf:	8b 45 d8             	mov    -0x28(%rbp),%eax
    16c2:	48 98                	cltq
    16c4:	48 c1 e0 04          	shl    $0x4,%rax
    16c8:	48 89 c2             	mov    %rax,%rdx
    16cb:	48 8d 05 b2 39 00 00 	lea    0x39b2(%rip),%rax        # 5084 <boxes+0x4>
    16d2:	8b 04 02             	mov    (%rdx,%rax,1),%eax
    16d5:	89 45 e4             	mov    %eax,-0x1c(%rbp)
    16d8:	8b 45 d8             	mov    -0x28(%rbp),%eax
    16db:	48 98                	cltq
    16dd:	48 c1 e0 04          	shl    $0x4,%rax
    16e1:	48 89 c2             	mov    %rax,%rdx
    16e4:	48 8d 05 9d 39 00 00 	lea    0x399d(%rip),%rax        # 5088 <boxes+0x8>
    16eb:	8b 04 02             	mov    (%rdx,%rax,1),%eax
    16ee:	89 45 e8             	mov    %eax,-0x18(%rbp)
    16f1:	8b 45 d8             	mov    -0x28(%rbp),%eax
    16f4:	48 98                	cltq
    16f6:	48 c1 e0 04          	shl    $0x4,%rax
    16fa:	48 89 c2             	mov    %rax,%rdx
    16fd:	48 8d 05 88 39 00 00 	lea    0x3988(%rip),%rax        # 508c <boxes+0xc>
    1704:	8b 04 02             	mov    (%rdx,%rax,1),%eax
    1707:	89 45 ec             	mov    %eax,-0x14(%rbp)
    170a:	48 8b 45 c8          	mov    -0x38(%rbp),%rax
    170e:	8b 00                	mov    (%rax),%eax
    1710:	39 45 e4             	cmp    %eax,-0x1c(%rbp)
    1713:	0f 8f 0d 01 00 00    	jg     1826 <clamp_target+0x19c>
    1719:	48 8b 45 c8          	mov    -0x38(%rbp),%rax
    171d:	8b 10                	mov    (%rax),%edx
    171f:	8b 4d e4             	mov    -0x1c(%rbp),%ecx
    1722:	8b 45 ec             	mov    -0x14(%rbp),%eax
    1725:	01 c8                	add    %ecx,%eax
    1727:	39 c2                	cmp    %eax,%edx
    1729:	0f 8d f7 00 00 00    	jge    1826 <clamp_target+0x19c>
    172f:	48 8b 45 c0          	mov    -0x40(%rbp),%rax
    1733:	8b 00                	mov    (%rax),%eax
    1735:	39 45 e0             	cmp    %eax,-0x20(%rbp)
    1738:	0f 8f e8 00 00 00    	jg     1826 <clamp_target+0x19c>
    173e:	48 8b 45 c0          	mov    -0x40(%rbp),%rax
    1742:	8b 10                	mov    (%rax),%edx
    1744:	8b 4d e0             	mov    -0x20(%rbp),%ecx
    1747:	8b 45 e8             	mov    -0x18(%rbp),%eax
    174a:	01 c8                	add    %ecx,%eax
    174c:	39 c2                	cmp    %eax,%edx
    174e:	0f 8d d2 00 00 00    	jge    1826 <clamp_target+0x19c>
    1754:	48 8b 45 c0          	mov    -0x40(%rbp),%rax
    1758:	8b 00                	mov    (%rax),%eax
    175a:	2b 45 e0             	sub    -0x20(%rbp),%eax
    175d:	89 45 f0             	mov    %eax,-0x10(%rbp)
    1760:	8b 55 e0             	mov    -0x20(%rbp),%edx
    1763:	8b 45 e8             	mov    -0x18(%rbp),%eax
    1766:	01 d0                	add    %edx,%eax
    1768:	8d 50 ff             	lea    -0x1(%rax),%edx
    176b:	48 8b 45 c0          	mov    -0x40(%rbp),%rax
    176f:	8b 00                	mov    (%rax),%eax
    1771:	29 c2                	sub    %eax,%edx
    1773:	89 55 f4             	mov    %edx,-0xc(%rbp)
    1776:	48 8b 45 c8          	mov    -0x38(%rbp),%rax
    177a:	8b 00                	mov    (%rax),%eax
    177c:	2b 45 e4             	sub    -0x1c(%rbp),%eax
    177f:	89 45 f8             	mov    %eax,-0x8(%rbp)
    1782:	8b 55 e4             	mov    -0x1c(%rbp),%edx
    1785:	8b 45 ec             	mov    -0x14(%rbp),%eax
    1788:	01 d0                	add    %edx,%eax
    178a:	8d 50 ff             	lea    -0x1(%rax),%edx
    178d:	48 8b 45 c8          	mov    -0x38(%rbp),%rax
    1791:	8b 00                	mov    (%rax),%eax
    1793:	29 c2                	sub    %eax,%edx
    1795:	89 55 fc             	mov    %edx,-0x4(%rbp)
    1798:	8b 45 f0             	mov    -0x10(%rbp),%eax
    179b:	89 45 dc             	mov    %eax,-0x24(%rbp)
    179e:	c6 45 d7 41          	movb   $0x41,-0x29(%rbp)
    17a2:	8b 45 f4             	mov    -0xc(%rbp),%eax
    17a5:	3b 45 dc             	cmp    -0x24(%rbp),%eax
    17a8:	7d 0a                	jge    17b4 <clamp_target+0x12a>
    17aa:	8b 45 f4             	mov    -0xc(%rbp),%eax
    17ad:	89 45 dc             	mov    %eax,-0x24(%rbp)
    17b0:	c6 45 d7 42          	movb   $0x42,-0x29(%rbp)
    17b4:	8b 45 f8             	mov    -0x8(%rbp),%eax
    17b7:	3b 45 dc             	cmp    -0x24(%rbp),%eax
    17ba:	7d 0a                	jge    17c6 <clamp_target+0x13c>
    17bc:	8b 45 f8             	mov    -0x8(%rbp),%eax
    17bf:	89 45 dc             	mov    %eax,-0x24(%rbp)
    17c2:	c6 45 d7 4c          	movb   $0x4c,-0x29(%rbp)
    17c6:	8b 45 fc             	mov    -0x4(%rbp),%eax
    17c9:	3b 45 dc             	cmp    -0x24(%rbp),%eax
    17cc:	7d 0a                	jge    17d8 <clamp_target+0x14e>
    17ce:	8b 45 fc             	mov    -0x4(%rbp),%eax
    17d1:	89 45 dc             	mov    %eax,-0x24(%rbp)
    17d4:	c6 45 d7 52          	movb   $0x52,-0x29(%rbp)
    17d8:	80 7d d7 41          	cmpb   $0x41,-0x29(%rbp)
    17dc:	75 0c                	jne    17ea <clamp_target+0x160>
    17de:	8b 45 e0             	mov    -0x20(%rbp),%eax
    17e1:	8d 50 ff             	lea    -0x1(%rax),%edx
    17e4:	48 8b 45 c0          	mov    -0x40(%rbp),%rax
    17e8:	89 10                	mov    %edx,(%rax)
    17ea:	80 7d d7 42          	cmpb   $0x42,-0x29(%rbp)
    17ee:	75 0e                	jne    17fe <clamp_target+0x174>
    17f0:	8b 55 e0             	mov    -0x20(%rbp),%edx
    17f3:	8b 45 e8             	mov    -0x18(%rbp),%eax
    17f6:	01 c2                	add    %eax,%edx
    17f8:	48 8b 45 c0          	mov    -0x40(%rbp),%rax
    17fc:	89 10                	mov    %edx,(%rax)
    17fe:	80 7d d7 4c          	cmpb   $0x4c,-0x29(%rbp)
    1802:	75 0c                	jne    1810 <clamp_target+0x186>
    1804:	8b 45 e4             	mov    -0x1c(%rbp),%eax
    1807:	8d 50 ff             	lea    -0x1(%rax),%edx
    180a:	48 8b 45 c8          	mov    -0x38(%rbp),%rax
    180e:	89 10                	mov    %edx,(%rax)
    1810:	80 7d d7 52          	cmpb   $0x52,-0x29(%rbp)
    1814:	75 25                	jne    183b <clamp_target+0x1b1>
    1816:	8b 55 e4             	mov    -0x1c(%rbp),%edx
    1819:	8b 45 ec             	mov    -0x14(%rbp),%eax
    181c:	01 c2                	add    %eax,%edx
    181e:	48 8b 45 c8          	mov    -0x38(%rbp),%rax
    1822:	89 10                	mov    %edx,(%rax)
    1824:	eb 15                	jmp    183b <clamp_target+0x1b1>
    1826:	83 45 d8 01          	addl   $0x1,-0x28(%rbp)
    182a:	8b 05 b0 38 00 00    	mov    0x38b0(%rip),%eax        # 50e0 <nboxes>
    1830:	39 45 d8             	cmp    %eax,-0x28(%rbp)
    1833:	0f 8c 6d fe ff ff    	jl     16a6 <clamp_target+0x1c>
    1839:	eb 01                	jmp    183c <clamp_target+0x1b2>
    183b:	90                   	nop
    183c:	5d                   	pop    %rbp
    183d:	c3                   	ret

000000000000183e <draw_ascii_box>:
    183e:	f3 0f 1e fa          	endbr64
    1842:	55                   	push   %rbp
    1843:	48 89 e5             	mov    %rsp,%rbp
    1846:	48 83 ec 40          	sub    $0x40,%rsp
    184a:	89 7d dc             	mov    %edi,-0x24(%rbp)
    184d:	89 75 d8             	mov    %esi,-0x28(%rbp)
    1850:	89 55 d4             	mov    %edx,-0x2c(%rbp)
    1853:	89 4d d0             	mov    %ecx,-0x30(%rbp)
    1856:	4c 89 45 c8          	mov    %r8,-0x38(%rbp)
    185a:	4c 89 4d c0          	mov    %r9,-0x40(%rbp)
    185e:	8b 45 dc             	mov    -0x24(%rbp),%eax
    1861:	89 45 f0             	mov    %eax,-0x10(%rbp)
    1864:	8b 45 d8             	mov    -0x28(%rbp),%eax
    1867:	89 45 f4             	mov    %eax,-0xc(%rbp)
    186a:	8b 45 d4             	mov    -0x2c(%rbp),%eax
    186d:	89 45 f8             	mov    %eax,-0x8(%rbp)
    1870:	8b 45 d0             	mov    -0x30(%rbp),%eax
    1873:	89 45 fc             	mov    %eax,-0x4(%rbp)
    1876:	c6 45 e2 30          	movb   $0x30,-0x1e(%rbp)
    187a:	c6 45 e3 30          	movb   $0x30,-0x1d(%rbp)
    187e:	48 8b 45 c8          	mov    -0x38(%rbp),%rax
    1882:	0f b6 00             	movzbl (%rax),%eax
    1885:	88 45 e2             	mov    %al,-0x1e(%rbp)
    1888:	48 8b 45 c0          	mov    -0x40(%rbp),%rax
    188c:	0f b6 00             	movzbl (%rax),%eax
    188f:	88 45 e2             	mov    %al,-0x1e(%rbp)
    1892:	0f b6 45 e2          	movzbl -0x1e(%rbp),%eax
    1896:	88 45 e3             	mov    %al,-0x1d(%rbp)
    1899:	0f b6 45 e3          	movzbl -0x1d(%rbp),%eax
    189d:	88 45 e2             	mov    %al,-0x1e(%rbp)
    18a0:	8b 4d f4             	mov    -0xc(%rbp),%ecx
    18a3:	8b 45 f0             	mov    -0x10(%rbp),%eax
    18a6:	48 8d 15 c5 17 00 00 	lea    0x17c5(%rip),%rdx        # 3072 <_IO_stdin_used+0x72>
    18ad:	89 ce                	mov    %ecx,%esi
    18af:	89 c7                	mov    %eax,%edi
    18b1:	b8 00 00 00 00       	mov    $0x0,%eax
    18b6:	e8 95 fa ff ff       	call   1350 <mvprintw@plt>
    18bb:	c7 45 e4 01 00 00 00 	movl   $0x1,-0x1c(%rbp)
    18c2:	eb 18                	jmp    18dc <draw_ascii_box+0x9e>
    18c4:	48 8b 05 35 38 00 00 	mov    0x3835(%rip),%rax        # 5100 <stdscr@NCURSES6_TINFO_5.0.19991023>
    18cb:	be 2d 00 00 00       	mov    $0x2d,%esi
    18d0:	48 89 c7             	mov    %rax,%rdi
    18d3:	e8 f8 fa ff ff       	call   13d0 <waddch@plt>
    18d8:	83 45 e4 01          	addl   $0x1,-0x1c(%rbp)
    18dc:	8b 45 fc             	mov    -0x4(%rbp),%eax
    18df:	83 e8 01             	sub    $0x1,%eax
    18e2:	39 45 e4             	cmp    %eax,-0x1c(%rbp)
    18e5:	7c dd                	jl     18c4 <draw_ascii_box+0x86>
    18e7:	48 8b 05 12 38 00 00 	mov    0x3812(%rip),%rax        # 5100 <stdscr@NCURSES6_TINFO_5.0.19991023>
    18ee:	be 2b 00 00 00       	mov    $0x2b,%esi
    18f3:	48 89 c7             	mov    %rax,%rdi
    18f6:	e8 d5 fa ff ff       	call   13d0 <waddch@plt>
    18fb:	c7 45 e8 01 00 00 00 	movl   $0x1,-0x18(%rbp)
    1902:	eb 4d                	jmp    1951 <draw_ascii_box+0x113>
    1904:	8b 55 f0             	mov    -0x10(%rbp),%edx
    1907:	8b 45 e8             	mov    -0x18(%rbp),%eax
    190a:	8d 0c 02             	lea    (%rdx,%rax,1),%ecx
    190d:	8b 45 f4             	mov    -0xc(%rbp),%eax
    1910:	48 8d 15 5d 17 00 00 	lea    0x175d(%rip),%rdx        # 3074 <_IO_stdin_used+0x74>
    1917:	89 c6                	mov    %eax,%esi
    1919:	89 cf                	mov    %ecx,%edi
    191b:	b8 00 00 00 00       	mov    $0x0,%eax
    1920:	e8 2b fa ff ff       	call   1350 <mvprintw@plt>
    1925:	8b 55 f4             	mov    -0xc(%rbp),%edx
    1928:	8b 45 fc             	mov    -0x4(%rbp),%eax
    192b:	01 d0                	add    %edx,%eax
    192d:	8d 48 ff             	lea    -0x1(%rax),%ecx
    1930:	8b 55 f0             	mov    -0x10(%rbp),%edx
    1933:	8b 45 e8             	mov    -0x18(%rbp),%eax
    1936:	01 d0                	add    %edx,%eax
    1938:	48 8d 15 35 17 00 00 	lea    0x1735(%rip),%rdx        # 3074 <_IO_stdin_used+0x74>
    193f:	89 ce                	mov    %ecx,%esi
    1941:	89 c7                	mov    %eax,%edi
    1943:	b8 00 00 00 00       	mov    $0x0,%eax
    1948:	e8 03 fa ff ff       	call   1350 <mvprintw@plt>
    194d:	83 45 e8 01          	addl   $0x1,-0x18(%rbp)
    1951:	8b 45 f8             	mov    -0x8(%rbp),%eax
    1954:	83 e8 01             	sub    $0x1,%eax
    1957:	39 45 e8             	cmp    %eax,-0x18(%rbp)
    195a:	7c a8                	jl     1904 <draw_ascii_box+0xc6>
    195c:	8b 55 f0             	mov    -0x10(%rbp),%edx
    195f:	8b 45 f8             	mov    -0x8(%rbp),%eax
    1962:	01 d0                	add    %edx,%eax
    1964:	8d 48 ff             	lea    -0x1(%rax),%ecx
    1967:	8b 45 f4             	mov    -0xc(%rbp),%eax
    196a:	48 8d 15 01 17 00 00 	lea    0x1701(%rip),%rdx        # 3072 <_IO_stdin_used+0x72>
    1971:	89 c6                	mov    %eax,%esi
    1973:	89 cf                	mov    %ecx,%edi
    1975:	b8 00 00 00 00       	mov    $0x0,%eax
    197a:	e8 d1 f9 ff ff       	call   1350 <mvprintw@plt>
    197f:	c7 45 ec 01 00 00 00 	movl   $0x1,-0x14(%rbp)
    1986:	eb 18                	jmp    19a0 <draw_ascii_box+0x162>
    1988:	48 8b 05 71 37 00 00 	mov    0x3771(%rip),%rax        # 5100 <stdscr@NCURSES6_TINFO_5.0.19991023>
    198f:	be 2d 00 00 00       	mov    $0x2d,%esi
    1994:	48 89 c7             	mov    %rax,%rdi
    1997:	e8 34 fa ff ff       	call   13d0 <waddch@plt>
    199c:	83 45 ec 01          	addl   $0x1,-0x14(%rbp)
    19a0:	8b 45 fc             	mov    -0x4(%rbp),%eax
    19a3:	83 e8 01             	sub    $0x1,%eax
    19a6:	39 45 ec             	cmp    %eax,-0x14(%rbp)
    19a9:	7c dd                	jl     1988 <draw_ascii_box+0x14a>
    19ab:	48 8b 05 4e 37 00 00 	mov    0x374e(%rip),%rax        # 5100 <stdscr@NCURSES6_TINFO_5.0.19991023>
    19b2:	be 2b 00 00 00       	mov    $0x2b,%esi
    19b7:	48 89 c7             	mov    %rax,%rdi
    19ba:	e8 11 fa ff ff       	call   13d0 <waddch@plt>
    19bf:	90                   	nop
    19c0:	c9                   	leave
    19c1:	c3                   	ret

00000000000019c2 <draw_layout>:
    19c2:	f3 0f 1e fa          	endbr64
    19c6:	55                   	push   %rbp
    19c7:	48 89 e5             	mov    %rsp,%rbp
    19ca:	48 81 ec e0 00 00 00 	sub    $0xe0,%rsp
    19d1:	64 48 8b 04 25 28 00 	mov    %fs:0x28,%rax
    19d8:	00 00 
    19da:	48 89 45 f8          	mov    %rax,-0x8(%rbp)
    19de:	31 c0                	xor    %eax,%eax
    19e0:	48 8b 05 19 37 00 00 	mov    0x3719(%rip),%rax        # 5100 <stdscr@NCURSES6_TINFO_5.0.19991023>
    19e7:	48 89 c7             	mov    %rax,%rdi
    19ea:	e8 91 f8 ff ff       	call   1280 <wclear@plt>
    19ef:	4c 8d 0d 80 16 00 00 	lea    0x1680(%rip),%r9        # 3076 <_IO_stdin_used+0x76>
    19f6:	4c 8d 05 79 16 00 00 	lea    0x1679(%rip),%r8        # 3076 <_IO_stdin_used+0x76>
    19fd:	b9 23 00 00 00       	mov    $0x23,%ecx
    1a02:	ba 07 00 00 00       	mov    $0x7,%edx
    1a07:	be 05 00 00 00       	mov    $0x5,%esi
    1a0c:	bf 01 00 00 00       	mov    $0x1,%edi
    1a11:	e8 28 fe ff ff       	call   183e <draw_ascii_box>
    1a16:	4c 8d 0d 59 16 00 00 	lea    0x1659(%rip),%r9        # 3076 <_IO_stdin_used+0x76>
    1a1d:	4c 8d 05 52 16 00 00 	lea    0x1652(%rip),%r8        # 3076 <_IO_stdin_used+0x76>
    1a24:	b9 23 00 00 00       	mov    $0x23,%ecx
    1a29:	ba 05 00 00 00       	mov    $0x5,%edx
    1a2e:	be 2d 00 00 00       	mov    $0x2d,%esi
    1a33:	bf 01 00 00 00       	mov    $0x1,%edi
    1a38:	e8 01 fe ff ff       	call   183e <draw_ascii_box>
    1a3d:	4c 8d 0d 32 16 00 00 	lea    0x1632(%rip),%r9        # 3076 <_IO_stdin_used+0x76>
    1a44:	4c 8d 05 2b 16 00 00 	lea    0x162b(%rip),%r8        # 3076 <_IO_stdin_used+0x76>
    1a4b:	b9 19 00 00 00       	mov    $0x19,%ecx
    1a50:	ba 21 00 00 00       	mov    $0x21,%edx
    1a55:	be 5a 00 00 00       	mov    $0x5a,%esi
    1a5a:	bf 01 00 00 00       	mov    $0x1,%edi
    1a5f:	e8 da fd ff ff       	call   183e <draw_ascii_box>
    1a64:	4c 8d 0d 0b 16 00 00 	lea    0x160b(%rip),%r9        # 3076 <_IO_stdin_used+0x76>
    1a6b:	4c 8d 05 04 16 00 00 	lea    0x1604(%rip),%r8        # 3076 <_IO_stdin_used+0x76>
    1a72:	b9 0a 00 00 00       	mov    $0xa,%ecx
    1a77:	ba 0f 00 00 00       	mov    $0xf,%edx
    1a7c:	be 05 00 00 00       	mov    $0x5,%esi
    1a81:	bf 0a 00 00 00       	mov    $0xa,%edi
    1a86:	e8 b3 fd ff ff       	call   183e <draw_ascii_box>
    1a8b:	4c 8d 0d e4 15 00 00 	lea    0x15e4(%rip),%r9        # 3076 <_IO_stdin_used+0x76>
    1a92:	4c 8d 05 dd 15 00 00 	lea    0x15dd(%rip),%r8        # 3076 <_IO_stdin_used+0x76>
    1a99:	b9 23 00 00 00       	mov    $0x23,%ecx
    1a9e:	ba 07 00 00 00       	mov    $0x7,%edx
    1aa3:	be 05 00 00 00       	mov    $0x5,%esi
    1aa8:	bf 1b 00 00 00       	mov    $0x1b,%edi
    1aad:	e8 8c fd ff ff       	call   183e <draw_ascii_box>
    1ab2:	4c 8d 0d bd 15 00 00 	lea    0x15bd(%rip),%r9        # 3076 <_IO_stdin_used+0x76>
    1ab9:	4c 8d 05 b6 15 00 00 	lea    0x15b6(%rip),%r8        # 3076 <_IO_stdin_used+0x76>
    1ac0:	b9 23 00 00 00       	mov    $0x23,%ecx
    1ac5:	ba 05 00 00 00       	mov    $0x5,%edx
    1aca:	be 2d 00 00 00       	mov    $0x2d,%esi
    1acf:	bf 1d 00 00 00       	mov    $0x1d,%edi
    1ad4:	e8 65 fd ff ff       	call   183e <draw_ascii_box>
    1ad9:	48 8d 05 97 15 00 00 	lea    0x1597(%rip),%rax        # 3077 <_IO_stdin_used+0x77>
    1ae0:	48 89 85 30 ff ff ff 	mov    %rax,-0xd0(%rbp)
    1ae7:	c7 85 38 ff ff ff 06 	movl   $0x6,-0xc8(%rbp)
    1aee:	00 00 00 
    1af1:	c7 85 3c ff ff ff 02 	movl   $0x2,-0xc4(%rbp)
    1af8:	00 00 00 
    1afb:	48 8d 05 81 15 00 00 	lea    0x1581(%rip),%rax        # 3083 <_IO_stdin_used+0x83>
    1b02:	48 89 85 40 ff ff ff 	mov    %rax,-0xc0(%rbp)
    1b09:	c7 85 48 ff ff ff 06 	movl   $0x6,-0xb8(%rbp)
    1b10:	00 00 00 
    1b13:	c7 85 4c ff ff ff 03 	movl   $0x3,-0xb4(%rbp)
    1b1a:	00 00 00 
    1b1d:	48 8d 05 67 15 00 00 	lea    0x1567(%rip),%rax        # 308b <_IO_stdin_used+0x8b>
    1b24:	48 89 85 50 ff ff ff 	mov    %rax,-0xb0(%rbp)
    1b2b:	c7 85 58 ff ff ff 5b 	movl   $0x5b,-0xa8(%rbp)
    1b32:	00 00 00 
    1b35:	c7 85 5c ff ff ff 02 	movl   $0x2,-0xa4(%rbp)
    1b3c:	00 00 00 
    1b3f:	48 8d 05 52 15 00 00 	lea    0x1552(%rip),%rax        # 3098 <_IO_stdin_used+0x98>
    1b46:	48 89 85 60 ff ff ff 	mov    %rax,-0xa0(%rbp)
    1b4d:	c7 85 68 ff ff ff 5b 	movl   $0x5b,-0x98(%rbp)
    1b54:	00 00 00 
    1b57:	c7 85 6c ff ff ff 03 	movl   $0x3,-0x94(%rbp)
    1b5e:	00 00 00 
    1b61:	48 8d 05 39 15 00 00 	lea    0x1539(%rip),%rax        # 30a1 <_IO_stdin_used+0xa1>
    1b68:	48 89 85 70 ff ff ff 	mov    %rax,-0x90(%rbp)
    1b6f:	c7 85 78 ff ff ff 2e 	movl   $0x2e,-0x88(%rbp)
    1b76:	00 00 00 
    1b79:	c7 85 7c ff ff ff 02 	movl   $0x2,-0x84(%rbp)
    1b80:	00 00 00 
    1b83:	48 8d 05 1c 15 00 00 	lea    0x151c(%rip),%rax        # 30a6 <_IO_stdin_used+0xa6>
    1b8a:	48 89 45 80          	mov    %rax,-0x80(%rbp)
    1b8e:	c7 45 88 2e 00 00 00 	movl   $0x2e,-0x78(%rbp)
    1b95:	c7 45 8c 03 00 00 00 	movl   $0x3,-0x74(%rbp)
    1b9c:	48 8d 05 0f 15 00 00 	lea    0x150f(%rip),%rax        # 30b2 <_IO_stdin_used+0xb2>
    1ba3:	48 89 45 90          	mov    %rax,-0x70(%rbp)
    1ba7:	c7 45 98 06 00 00 00 	movl   $0x6,-0x68(%rbp)
    1bae:	c7 45 9c 0b 00 00 00 	movl   $0xb,-0x64(%rbp)
    1bb5:	48 8d 05 fa 14 00 00 	lea    0x14fa(%rip),%rax        # 30b6 <_IO_stdin_used+0xb6>
    1bbc:	48 89 45 a0          	mov    %rax,-0x60(%rbp)
    1bc0:	c7 45 a8 06 00 00 00 	movl   $0x6,-0x58(%rbp)
    1bc7:	c7 45 ac 0c 00 00 00 	movl   $0xc,-0x54(%rbp)
    1bce:	48 8d 05 ea 14 00 00 	lea    0x14ea(%rip),%rax        # 30bf <_IO_stdin_used+0xbf>
    1bd5:	48 89 45 b0          	mov    %rax,-0x50(%rbp)
    1bd9:	c7 45 b8 06 00 00 00 	movl   $0x6,-0x48(%rbp)
    1be0:	c7 45 bc 1c 00 00 00 	movl   $0x1c,-0x44(%rbp)
    1be7:	48 8d 05 95 14 00 00 	lea    0x1495(%rip),%rax        # 3083 <_IO_stdin_used+0x83>
    1bee:	48 89 45 c0          	mov    %rax,-0x40(%rbp)
    1bf2:	c7 45 c8 06 00 00 00 	movl   $0x6,-0x38(%rbp)
    1bf9:	c7 45 cc 1d 00 00 00 	movl   $0x1d,-0x34(%rbp)
    1c00:	48 8d 05 c5 14 00 00 	lea    0x14c5(%rip),%rax        # 30cc <_IO_stdin_used+0xcc>
    1c07:	48 89 45 d0          	mov    %rax,-0x30(%rbp)
    1c0b:	c7 45 d8 2e 00 00 00 	movl   $0x2e,-0x28(%rbp)
    1c12:	c7 45 dc 1f 00 00 00 	movl   $0x1f,-0x24(%rbp)
    1c19:	48 8d 05 63 14 00 00 	lea    0x1463(%rip),%rax        # 3083 <_IO_stdin_used+0x83>
    1c20:	48 89 45 e0          	mov    %rax,-0x20(%rbp)
    1c24:	c7 45 e8 2e 00 00 00 	movl   $0x2e,-0x18(%rbp)
    1c2b:	c7 45 ec 20 00 00 00 	movl   $0x20,-0x14(%rbp)
    1c32:	48 c7 85 28 ff ff ff 	movq   $0x0,-0xd8(%rbp)
    1c39:	00 00 00 00 
    1c3d:	eb 61                	jmp    1ca0 <draw_layout+0x2de>
    1c3f:	48 8b 85 28 ff ff ff 	mov    -0xd8(%rbp),%rax
    1c46:	48 c1 e0 04          	shl    $0x4,%rax
    1c4a:	48 01 e8             	add    %rbp,%rax
    1c4d:	48 2d d0 00 00 00    	sub    $0xd0,%rax
    1c53:	48 8b 10             	mov    (%rax),%rdx
    1c56:	48 8b 85 28 ff ff ff 	mov    -0xd8(%rbp),%rax
    1c5d:	48 c1 e0 04          	shl    $0x4,%rax
    1c61:	48 01 e8             	add    %rbp,%rax
    1c64:	48 2d c8 00 00 00    	sub    $0xc8,%rax
    1c6a:	8b 30                	mov    (%rax),%esi
    1c6c:	48 8b 85 28 ff ff ff 	mov    -0xd8(%rbp),%rax
    1c73:	48 c1 e0 04          	shl    $0x4,%rax
    1c77:	48 01 e8             	add    %rbp,%rax
    1c7a:	48 2d c4 00 00 00    	sub    $0xc4,%rax
    1c80:	8b 00                	mov    (%rax),%eax
    1c82:	48 89 d1             	mov    %rdx,%rcx
    1c85:	48 8d 15 46 14 00 00 	lea    0x1446(%rip),%rdx        # 30d2 <_IO_stdin_used+0xd2>
    1c8c:	89 c7                	mov    %eax,%edi
    1c8e:	b8 00 00 00 00       	mov    $0x0,%eax
    1c93:	e8 b8 f6 ff ff       	call   1350 <mvprintw@plt>
    1c98:	48 83 85 28 ff ff ff 	addq   $0x1,-0xd8(%rbp)
    1c9f:	01 
    1ca0:	48 83 bd 28 ff ff ff 	cmpq   $0xb,-0xd8(%rbp)
    1ca7:	0b 
    1ca8:	76 95                	jbe    1c3f <draw_layout+0x27d>
    1caa:	48 8b 05 4f 34 00 00 	mov    0x344f(%rip),%rax        # 5100 <stdscr@NCURSES6_TINFO_5.0.19991023>
    1cb1:	48 89 c7             	mov    %rax,%rdi
    1cb4:	e8 47 f6 ff ff       	call   1300 <wrefresh@plt>
    1cb9:	90                   	nop
    1cba:	48 8b 45 f8          	mov    -0x8(%rbp),%rax
    1cbe:	64 48 2b 04 25 28 00 	sub    %fs:0x28,%rax
    1cc5:	00 00 
    1cc7:	74 05                	je     1cce <draw_layout+0x30c>
    1cc9:	e8 02 f6 ff ff       	call   12d0 <__stack_chk_fail@plt>
    1cce:	c9                   	leave
    1ccf:	c3                   	ret

0000000000001cd0 <draw_chef>:
    1cd0:	f3 0f 1e fa          	endbr64
    1cd4:	55                   	push   %rbp
    1cd5:	48 89 e5             	mov    %rsp,%rbp
    1cd8:	48 83 ec 10          	sub    $0x10,%rsp
    1cdc:	89 7d fc             	mov    %edi,-0x4(%rbp)
    1cdf:	89 75 f8             	mov    %esi,-0x8(%rbp)
    1ce2:	48 89 55 f0          	mov    %rdx,-0x10(%rbp)
    1ce6:	48 8b 05 13 34 00 00 	mov    0x3413(%rip),%rax        # 5100 <stdscr@NCURSES6_TINFO_5.0.19991023>
    1ced:	ba 00 00 00 00       	mov    $0x0,%edx
    1cf2:	be 00 00 20 00       	mov    $0x200000,%esi
    1cf7:	48 89 c7             	mov    %rax,%rdi
    1cfa:	e8 21 f6 ff ff       	call   1320 <wattr_on@plt>
    1cff:	48 8b 55 f0          	mov    -0x10(%rbp),%rdx
    1d03:	8b 75 fc             	mov    -0x4(%rbp),%esi
    1d06:	8b 45 f8             	mov    -0x8(%rbp),%eax
    1d09:	48 89 d1             	mov    %rdx,%rcx
    1d0c:	48 8d 15 bf 13 00 00 	lea    0x13bf(%rip),%rdx        # 30d2 <_IO_stdin_used+0xd2>
    1d13:	89 c7                	mov    %eax,%edi
    1d15:	b8 00 00 00 00       	mov    $0x0,%eax
    1d1a:	e8 31 f6 ff ff       	call   1350 <mvprintw@plt>
    1d1f:	48 8b 05 da 33 00 00 	mov    0x33da(%rip),%rax        # 5100 <stdscr@NCURSES6_TINFO_5.0.19991023>
    1d26:	ba 00 00 00 00       	mov    $0x0,%edx
    1d2b:	be 00 00 20 00       	mov    $0x200000,%esi
    1d30:	48 89 c7             	mov    %rax,%rdi
    1d33:	e8 d8 f6 ff ff       	call   1410 <wattr_off@plt>
    1d38:	90                   	nop
    1d39:	c9                   	leave
    1d3a:	c3                   	ret

0000000000001d3b <can_move_to>:
    1d3b:	f3 0f 1e fa          	endbr64
    1d3f:	55                   	push   %rbp
    1d40:	48 89 e5             	mov    %rsp,%rbp
    1d43:	89 7d dc             	mov    %edi,-0x24(%rbp)
    1d46:	89 75 d8             	mov    %esi,-0x28(%rbp)
    1d49:	89 55 d4             	mov    %edx,-0x2c(%rbp)
    1d4c:	8b 45 d4             	mov    -0x2c(%rbp),%eax
    1d4f:	48 98                	cltq
    1d51:	48 8d 14 c5 00 00 00 	lea    0x0(,%rax,8),%rdx
    1d58:	00 
    1d59:	48 8d 05 d0 32 00 00 	lea    0x32d0(%rip),%rax        # 5030 <chef_positions>
    1d60:	8b 04 02             	mov    (%rdx,%rax,1),%eax
    1d63:	89 45 e8             	mov    %eax,-0x18(%rbp)
    1d66:	8b 45 d4             	mov    -0x2c(%rbp),%eax
    1d69:	48 98                	cltq
    1d6b:	48 8d 14 c5 00 00 00 	lea    0x0(,%rax,8),%rdx
    1d72:	00 
    1d73:	48 8d 05 ba 32 00 00 	lea    0x32ba(%rip),%rax        # 5034 <chef_positions+0x4>
    1d7a:	8b 04 02             	mov    (%rdx,%rax,1),%eax
    1d7d:	89 45 ec             	mov    %eax,-0x14(%rbp)
    1d80:	c7 45 e4 00 00 00 00 	movl   $0x0,-0x1c(%rbp)
    1d87:	e9 e1 00 00 00       	jmp    1e6d <can_move_to+0x132>
    1d8c:	8b 45 e4             	mov    -0x1c(%rbp),%eax
    1d8f:	3b 45 d4             	cmp    -0x2c(%rbp),%eax
    1d92:	0f 84 cd 00 00 00    	je     1e65 <can_move_to+0x12a>
    1d98:	8b 45 e4             	mov    -0x1c(%rbp),%eax
    1d9b:	48 98                	cltq
    1d9d:	48 8d 14 c5 00 00 00 	lea    0x0(,%rax,8),%rdx
    1da4:	00 
    1da5:	48 8d 05 84 32 00 00 	lea    0x3284(%rip),%rax        # 5030 <chef_positions>
    1dac:	8b 04 02             	mov    (%rdx,%rax,1),%eax
    1daf:	89 45 f0             	mov    %eax,-0x10(%rbp)
    1db2:	8b 45 e4             	mov    -0x1c(%rbp),%eax
    1db5:	48 98                	cltq
    1db7:	48 8d 14 c5 00 00 00 	lea    0x0(,%rax,8),%rdx
    1dbe:	00 
    1dbf:	48 8d 05 6e 32 00 00 	lea    0x326e(%rip),%rax        # 5034 <chef_positions+0x4>
    1dc6:	8b 04 02             	mov    (%rdx,%rax,1),%eax
    1dc9:	89 45 f4             	mov    %eax,-0xc(%rbp)
    1dcc:	8b 45 e4             	mov    -0x1c(%rbp),%eax
    1dcf:	48 98                	cltq
    1dd1:	48 8d 14 c5 00 00 00 	lea    0x0(,%rax,8),%rdx
    1dd8:	00 
    1dd9:	48 8d 05 70 32 00 00 	lea    0x3270(%rip),%rax        # 5050 <chef_desired_pos>
    1de0:	8b 04 02             	mov    (%rdx,%rax,1),%eax
    1de3:	89 45 f8             	mov    %eax,-0x8(%rbp)
    1de6:	8b 45 e4             	mov    -0x1c(%rbp),%eax
    1de9:	48 98                	cltq
    1deb:	48 8d 14 c5 00 00 00 	lea    0x0(,%rax,8),%rdx
    1df2:	00 
    1df3:	48 8d 05 5a 32 00 00 	lea    0x325a(%rip),%rax        # 5054 <chef_desired_pos+0x4>
    1dfa:	8b 04 02             	mov    (%rdx,%rax,1),%eax
    1dfd:	89 45 fc             	mov    %eax,-0x4(%rbp)
    1e00:	8b 45 f0             	mov    -0x10(%rbp),%eax
    1e03:	3b 45 dc             	cmp    -0x24(%rbp),%eax
    1e06:	75 27                	jne    1e2f <can_move_to+0xf4>
    1e08:	8b 45 f4             	mov    -0xc(%rbp),%eax
    1e0b:	3b 45 d8             	cmp    -0x28(%rbp),%eax
    1e0e:	75 1f                	jne    1e2f <can_move_to+0xf4>
    1e10:	8b 45 f8             	mov    -0x8(%rbp),%eax
    1e13:	3b 45 e8             	cmp    -0x18(%rbp),%eax
    1e16:	75 17                	jne    1e2f <can_move_to+0xf4>
    1e18:	8b 45 fc             	mov    -0x4(%rbp),%eax
    1e1b:	3b 45 ec             	cmp    -0x14(%rbp),%eax
    1e1e:	75 0f                	jne    1e2f <can_move_to+0xf4>
    1e20:	8b 45 e4             	mov    -0x1c(%rbp),%eax
    1e23:	3b 45 d4             	cmp    -0x2c(%rbp),%eax
    1e26:	7d 40                	jge    1e68 <can_move_to+0x12d>
    1e28:	b8 00 00 00 00       	mov    $0x0,%eax
    1e2d:	eb 4d                	jmp    1e7c <can_move_to+0x141>
    1e2f:	8b 45 f0             	mov    -0x10(%rbp),%eax
    1e32:	3b 45 dc             	cmp    -0x24(%rbp),%eax
    1e35:	75 0f                	jne    1e46 <can_move_to+0x10b>
    1e37:	8b 45 f4             	mov    -0xc(%rbp),%eax
    1e3a:	3b 45 d8             	cmp    -0x28(%rbp),%eax
    1e3d:	75 07                	jne    1e46 <can_move_to+0x10b>
    1e3f:	b8 00 00 00 00       	mov    $0x0,%eax
    1e44:	eb 36                	jmp    1e7c <can_move_to+0x141>
    1e46:	8b 45 f8             	mov    -0x8(%rbp),%eax
    1e49:	3b 45 dc             	cmp    -0x24(%rbp),%eax
    1e4c:	75 1b                	jne    1e69 <can_move_to+0x12e>
    1e4e:	8b 45 fc             	mov    -0x4(%rbp),%eax
    1e51:	3b 45 d8             	cmp    -0x28(%rbp),%eax
    1e54:	75 13                	jne    1e69 <can_move_to+0x12e>
    1e56:	8b 45 e4             	mov    -0x1c(%rbp),%eax
    1e59:	3b 45 d4             	cmp    -0x2c(%rbp),%eax
    1e5c:	7d 0b                	jge    1e69 <can_move_to+0x12e>
    1e5e:	b8 00 00 00 00       	mov    $0x0,%eax
    1e63:	eb 17                	jmp    1e7c <can_move_to+0x141>
    1e65:	90                   	nop
    1e66:	eb 01                	jmp    1e69 <can_move_to+0x12e>
    1e68:	90                   	nop
    1e69:	83 45 e4 01          	addl   $0x1,-0x1c(%rbp)
    1e6d:	83 7d e4 02          	cmpl   $0x2,-0x1c(%rbp)
    1e71:	0f 8e 15 ff ff ff    	jle    1d8c <can_move_to+0x51>
    1e77:	b8 01 00 00 00       	mov    $0x1,%eax
    1e7c:	5d                   	pop    %rbp
    1e7d:	c3                   	ret

0000000000001e7e <move_chef>:
    1e7e:	f3 0f 1e fa          	endbr64
    1e82:	55                   	push   %rbp
    1e83:	48 89 e5             	mov    %rsp,%rbp
    1e86:	48 83 ec 50          	sub    $0x50,%rsp
    1e8a:	48 89 7d d8          	mov    %rdi,-0x28(%rbp)
    1e8e:	48 89 75 d0          	mov    %rsi,-0x30(%rbp)
    1e92:	89 55 cc             	mov    %edx,-0x34(%rbp)
    1e95:	89 4d c8             	mov    %ecx,-0x38(%rbp)
    1e98:	4c 89 45 c0          	mov    %r8,-0x40(%rbp)
    1e9c:	44 89 4d bc          	mov    %r9d,-0x44(%rbp)
    1ea0:	48 8b 45 d8          	mov    -0x28(%rbp),%rax
    1ea4:	8b 00                	mov    (%rax),%eax
    1ea6:	89 45 e8             	mov    %eax,-0x18(%rbp)
    1ea9:	48 8b 45 d0          	mov    -0x30(%rbp),%rax
    1ead:	8b 00                	mov    (%rax),%eax
    1eaf:	89 45 ec             	mov    %eax,-0x14(%rbp)
    1eb2:	48 8d 55 c8          	lea    -0x38(%rbp),%rdx
    1eb6:	48 8d 45 cc          	lea    -0x34(%rbp),%rax
    1eba:	48 89 d6             	mov    %rdx,%rsi
    1ebd:	48 89 c7             	mov    %rax,%rdi
    1ec0:	e8 c5 f7 ff ff       	call   168a <clamp_target>
    1ec5:	e9 79 03 00 00       	jmp    2243 <move_chef+0x3c5>
    1eca:	48 8b 45 d8          	mov    -0x28(%rbp),%rax
    1ece:	8b 10                	mov    (%rax),%edx
    1ed0:	8b 45 cc             	mov    -0x34(%rbp),%eax
    1ed3:	39 c2                	cmp    %eax,%edx
    1ed5:	7c 1b                	jl     1ef2 <move_chef+0x74>
    1ed7:	48 8b 45 d8          	mov    -0x28(%rbp),%rax
    1edb:	8b 10                	mov    (%rax),%edx
    1edd:	8b 45 cc             	mov    -0x34(%rbp),%eax
    1ee0:	39 c2                	cmp    %eax,%edx
    1ee2:	7e 07                	jle    1eeb <move_chef+0x6d>
    1ee4:	b8 ff ff ff ff       	mov    $0xffffffff,%eax
    1ee9:	eb 0c                	jmp    1ef7 <move_chef+0x79>
    1eeb:	b8 00 00 00 00       	mov    $0x0,%eax
    1ef0:	eb 05                	jmp    1ef7 <move_chef+0x79>
    1ef2:	b8 01 00 00 00       	mov    $0x1,%eax
    1ef7:	89 45 f8             	mov    %eax,-0x8(%rbp)
    1efa:	48 8b 45 d0          	mov    -0x30(%rbp),%rax
    1efe:	8b 10                	mov    (%rax),%edx
    1f00:	8b 45 c8             	mov    -0x38(%rbp),%eax
    1f03:	39 c2                	cmp    %eax,%edx
    1f05:	7c 1b                	jl     1f22 <move_chef+0xa4>
    1f07:	48 8b 45 d0          	mov    -0x30(%rbp),%rax
    1f0b:	8b 10                	mov    (%rax),%edx
    1f0d:	8b 45 c8             	mov    -0x38(%rbp),%eax
    1f10:	39 c2                	cmp    %eax,%edx
    1f12:	7e 07                	jle    1f1b <move_chef+0x9d>
    1f14:	b8 ff ff ff ff       	mov    $0xffffffff,%eax
    1f19:	eb 0c                	jmp    1f27 <move_chef+0xa9>
    1f1b:	b8 00 00 00 00       	mov    $0x0,%eax
    1f20:	eb 05                	jmp    1f27 <move_chef+0xa9>
    1f22:	b8 01 00 00 00       	mov    $0x1,%eax
    1f27:	89 45 fc             	mov    %eax,-0x4(%rbp)
    1f2a:	48 8b 45 d8          	mov    -0x28(%rbp),%rax
    1f2e:	8b 00                	mov    (%rax),%eax
    1f30:	89 45 f0             	mov    %eax,-0x10(%rbp)
    1f33:	48 8b 45 d0          	mov    -0x30(%rbp),%rax
    1f37:	8b 00                	mov    (%rax),%eax
    1f39:	89 45 f4             	mov    %eax,-0xc(%rbp)
    1f3c:	83 7d f8 00          	cmpl   $0x0,-0x8(%rbp)
    1f40:	74 2c                	je     1f6e <move_chef+0xf0>
    1f42:	48 8b 45 d0          	mov    -0x30(%rbp),%rax
    1f46:	8b 00                	mov    (%rax),%eax
    1f48:	48 8b 55 d8          	mov    -0x28(%rbp),%rdx
    1f4c:	8b 0a                	mov    (%rdx),%ecx
    1f4e:	8b 55 f8             	mov    -0x8(%rbp),%edx
    1f51:	01 ca                	add    %ecx,%edx
    1f53:	89 c6                	mov    %eax,%esi
    1f55:	89 d7                	mov    %edx,%edi
    1f57:	e8 65 f6 ff ff       	call   15c1 <is_blocked>
    1f5c:	85 c0                	test   %eax,%eax
    1f5e:	75 0e                	jne    1f6e <move_chef+0xf0>
    1f60:	48 8b 45 d8          	mov    -0x28(%rbp),%rax
    1f64:	8b 10                	mov    (%rax),%edx
    1f66:	8b 45 f8             	mov    -0x8(%rbp),%eax
    1f69:	01 d0                	add    %edx,%eax
    1f6b:	89 45 f0             	mov    %eax,-0x10(%rbp)
    1f6e:	48 8b 45 d8          	mov    -0x28(%rbp),%rax
    1f72:	8b 00                	mov    (%rax),%eax
    1f74:	39 45 f0             	cmp    %eax,-0x10(%rbp)
    1f77:	75 32                	jne    1fab <move_chef+0x12d>
    1f79:	83 7d fc 00          	cmpl   $0x0,-0x4(%rbp)
    1f7d:	74 2c                	je     1fab <move_chef+0x12d>
    1f7f:	48 8b 45 d0          	mov    -0x30(%rbp),%rax
    1f83:	8b 10                	mov    (%rax),%edx
    1f85:	8b 45 fc             	mov    -0x4(%rbp),%eax
    1f88:	01 c2                	add    %eax,%edx
    1f8a:	48 8b 45 d8          	mov    -0x28(%rbp),%rax
    1f8e:	8b 00                	mov    (%rax),%eax
    1f90:	89 d6                	mov    %edx,%esi
    1f92:	89 c7                	mov    %eax,%edi
    1f94:	e8 28 f6 ff ff       	call   15c1 <is_blocked>
    1f99:	85 c0                	test   %eax,%eax
    1f9b:	75 0e                	jne    1fab <move_chef+0x12d>
    1f9d:	48 8b 45 d0          	mov    -0x30(%rbp),%rax
    1fa1:	8b 10                	mov    (%rax),%edx
    1fa3:	8b 45 fc             	mov    -0x4(%rbp),%eax
    1fa6:	01 d0                	add    %edx,%eax
    1fa8:	89 45 f4             	mov    %eax,-0xc(%rbp)
    1fab:	48 8b 45 d8          	mov    -0x28(%rbp),%rax
    1faf:	8b 00                	mov    (%rax),%eax
    1fb1:	39 45 f0             	cmp    %eax,-0x10(%rbp)
    1fb4:	75 56                	jne    200c <move_chef+0x18e>
    1fb6:	48 8b 45 d0          	mov    -0x30(%rbp),%rax
    1fba:	8b 00                	mov    (%rax),%eax
    1fbc:	39 45 f4             	cmp    %eax,-0xc(%rbp)
    1fbf:	75 4b                	jne    200c <move_chef+0x18e>
    1fc1:	83 7d f8 00          	cmpl   $0x0,-0x8(%rbp)
    1fc5:	74 45                	je     200c <move_chef+0x18e>
    1fc7:	83 7d fc 00          	cmpl   $0x0,-0x4(%rbp)
    1fcb:	74 3f                	je     200c <move_chef+0x18e>
    1fcd:	48 8b 45 d0          	mov    -0x30(%rbp),%rax
    1fd1:	8b 10                	mov    (%rax),%edx
    1fd3:	8b 45 fc             	mov    -0x4(%rbp),%eax
    1fd6:	01 c2                	add    %eax,%edx
    1fd8:	48 8b 45 d8          	mov    -0x28(%rbp),%rax
    1fdc:	8b 08                	mov    (%rax),%ecx
    1fde:	8b 45 f8             	mov    -0x8(%rbp),%eax
    1fe1:	01 c8                	add    %ecx,%eax
    1fe3:	89 d6                	mov    %edx,%esi
    1fe5:	89 c7                	mov    %eax,%edi
    1fe7:	e8 d5 f5 ff ff       	call   15c1 <is_blocked>
    1fec:	85 c0                	test   %eax,%eax
    1fee:	75 1c                	jne    200c <move_chef+0x18e>
    1ff0:	48 8b 45 d8          	mov    -0x28(%rbp),%rax
    1ff4:	8b 10                	mov    (%rax),%edx
    1ff6:	8b 45 f8             	mov    -0x8(%rbp),%eax
    1ff9:	01 d0                	add    %edx,%eax
    1ffb:	89 45 f0             	mov    %eax,-0x10(%rbp)
    1ffe:	48 8b 45 d0          	mov    -0x30(%rbp),%rax
    2002:	8b 10                	mov    (%rax),%edx
    2004:	8b 45 fc             	mov    -0x4(%rbp),%eax
    2007:	01 d0                	add    %edx,%eax
    2009:	89 45 f4             	mov    %eax,-0xc(%rbp)
    200c:	48 8b 45 d8          	mov    -0x28(%rbp),%rax
    2010:	8b 00                	mov    (%rax),%eax
    2012:	39 45 f0             	cmp    %eax,-0x10(%rbp)
    2015:	75 52                	jne    2069 <move_chef+0x1eb>
    2017:	48 8b 45 d0          	mov    -0x30(%rbp),%rax
    201b:	8b 00                	mov    (%rax),%eax
    201d:	39 45 f4             	cmp    %eax,-0xc(%rbp)
    2020:	75 47                	jne    2069 <move_chef+0x1eb>
    2022:	83 7d f8 00          	cmpl   $0x0,-0x8(%rbp)
    2026:	74 41                	je     2069 <move_chef+0x1eb>
    2028:	83 7d fc 00          	cmpl   $0x0,-0x4(%rbp)
    202c:	74 3b                	je     2069 <move_chef+0x1eb>
    202e:	48 8b 45 d0          	mov    -0x30(%rbp),%rax
    2032:	8b 00                	mov    (%rax),%eax
    2034:	2b 45 fc             	sub    -0x4(%rbp),%eax
    2037:	48 8b 55 d8          	mov    -0x28(%rbp),%rdx
    203b:	8b 0a                	mov    (%rdx),%ecx
    203d:	8b 55 f8             	mov    -0x8(%rbp),%edx
    2040:	01 ca                	add    %ecx,%edx
    2042:	89 c6                	mov    %eax,%esi
    2044:	89 d7                	mov    %edx,%edi
    2046:	e8 76 f5 ff ff       	call   15c1 <is_blocked>
    204b:	85 c0                	test   %eax,%eax
    204d:	75 1a                	jne    2069 <move_chef+0x1eb>
    204f:	48 8b 45 d8          	mov    -0x28(%rbp),%rax
    2053:	8b 10                	mov    (%rax),%edx
    2055:	8b 45 f8             	mov    -0x8(%rbp),%eax
    2058:	01 d0                	add    %edx,%eax
    205a:	89 45 f0             	mov    %eax,-0x10(%rbp)
    205d:	48 8b 45 d0          	mov    -0x30(%rbp),%rax
    2061:	8b 00                	mov    (%rax),%eax
    2063:	2b 45 fc             	sub    -0x4(%rbp),%eax
    2066:	89 45 f4             	mov    %eax,-0xc(%rbp)
    2069:	48 8b 45 d8          	mov    -0x28(%rbp),%rax
    206d:	8b 00                	mov    (%rax),%eax
    206f:	39 45 f0             	cmp    %eax,-0x10(%rbp)
    2072:	75 52                	jne    20c6 <move_chef+0x248>
    2074:	48 8b 45 d0          	mov    -0x30(%rbp),%rax
    2078:	8b 00                	mov    (%rax),%eax
    207a:	39 45 f4             	cmp    %eax,-0xc(%rbp)
    207d:	75 47                	jne    20c6 <move_chef+0x248>
    207f:	83 7d f8 00          	cmpl   $0x0,-0x8(%rbp)
    2083:	74 41                	je     20c6 <move_chef+0x248>
    2085:	83 7d fc 00          	cmpl   $0x0,-0x4(%rbp)
    2089:	74 3b                	je     20c6 <move_chef+0x248>
    208b:	48 8b 45 d0          	mov    -0x30(%rbp),%rax
    208f:	8b 10                	mov    (%rax),%edx
    2091:	8b 45 fc             	mov    -0x4(%rbp),%eax
    2094:	01 c2                	add    %eax,%edx
    2096:	48 8b 45 d8          	mov    -0x28(%rbp),%rax
    209a:	8b 00                	mov    (%rax),%eax
    209c:	2b 45 f8             	sub    -0x8(%rbp),%eax
    209f:	89 d6                	mov    %edx,%esi
    20a1:	89 c7                	mov    %eax,%edi
    20a3:	e8 19 f5 ff ff       	call   15c1 <is_blocked>
    20a8:	85 c0                	test   %eax,%eax
    20aa:	75 1a                	jne    20c6 <move_chef+0x248>
    20ac:	48 8b 45 d8          	mov    -0x28(%rbp),%rax
    20b0:	8b 00                	mov    (%rax),%eax
    20b2:	2b 45 f8             	sub    -0x8(%rbp),%eax
    20b5:	89 45 f0             	mov    %eax,-0x10(%rbp)
    20b8:	48 8b 45 d0          	mov    -0x30(%rbp),%rax
    20bc:	8b 10                	mov    (%rax),%edx
    20be:	8b 45 fc             	mov    -0x4(%rbp),%eax
    20c1:	01 d0                	add    %edx,%eax
    20c3:	89 45 f4             	mov    %eax,-0xc(%rbp)
    20c6:	48 8b 45 d8          	mov    -0x28(%rbp),%rax
    20ca:	8b 00                	mov    (%rax),%eax
    20cc:	39 45 f0             	cmp    %eax,-0x10(%rbp)
    20cf:	75 1d                	jne    20ee <move_chef+0x270>
    20d1:	48 8b 45 d0          	mov    -0x30(%rbp),%rax
    20d5:	8b 00                	mov    (%rax),%eax
    20d7:	39 45 f4             	cmp    %eax,-0xc(%rbp)
    20da:	75 12                	jne    20ee <move_chef+0x270>
    20dc:	8b 05 3e 2f 00 00    	mov    0x2f3e(%rip),%eax        # 5020 <move_delay_us>
    20e2:	89 c7                	mov    %eax,%edi
    20e4:	e8 47 f3 ff ff       	call   1430 <usleep@plt>
    20e9:	e9 55 01 00 00       	jmp    2243 <move_chef+0x3c5>
    20ee:	8b 45 bc             	mov    -0x44(%rbp),%eax
    20f1:	48 98                	cltq
    20f3:	48 8d 0c c5 00 00 00 	lea    0x0(,%rax,8),%rcx
    20fa:	00 
    20fb:	48 8d 15 4e 2f 00 00 	lea    0x2f4e(%rip),%rdx        # 5050 <chef_desired_pos>
    2102:	8b 45 f0             	mov    -0x10(%rbp),%eax
    2105:	89 04 11             	mov    %eax,(%rcx,%rdx,1)
    2108:	8b 45 bc             	mov    -0x44(%rbp),%eax
    210b:	48 98                	cltq
    210d:	48 8d 0c c5 00 00 00 	lea    0x0(,%rax,8),%rcx
    2114:	00 
    2115:	48 8d 15 38 2f 00 00 	lea    0x2f38(%rip),%rdx        # 5054 <chef_desired_pos+0x4>
    211c:	8b 45 f4             	mov    -0xc(%rbp),%eax
    211f:	89 04 11             	mov    %eax,(%rcx,%rdx,1)
    2122:	8b 55 bc             	mov    -0x44(%rbp),%edx
    2125:	8b 4d f4             	mov    -0xc(%rbp),%ecx
    2128:	8b 45 f0             	mov    -0x10(%rbp),%eax
    212b:	89 ce                	mov    %ecx,%esi
    212d:	89 c7                	mov    %eax,%edi
    212f:	e8 07 fc ff ff       	call   1d3b <can_move_to>
    2134:	85 c0                	test   %eax,%eax
    2136:	75 12                	jne    214a <move_chef+0x2cc>
    2138:	8b 05 e2 2e 00 00    	mov    0x2ee2(%rip),%eax        # 5020 <move_delay_us>
    213e:	89 c7                	mov    %eax,%edi
    2140:	e8 eb f2 ff ff       	call   1430 <usleep@plt>
    2145:	e9 f9 00 00 00       	jmp    2243 <move_chef+0x3c5>
    214a:	48 8b 45 d8          	mov    -0x28(%rbp),%rax
    214e:	8b 55 f0             	mov    -0x10(%rbp),%edx
    2151:	89 10                	mov    %edx,(%rax)
    2153:	48 8b 45 d0          	mov    -0x30(%rbp),%rax
    2157:	8b 55 f4             	mov    -0xc(%rbp),%edx
    215a:	89 10                	mov    %edx,(%rax)
    215c:	8b 45 bc             	mov    -0x44(%rbp),%eax
    215f:	48 98                	cltq
    2161:	48 8d 0c c5 00 00 00 	lea    0x0(,%rax,8),%rcx
    2168:	00 
    2169:	48 8d 15 c0 2e 00 00 	lea    0x2ec0(%rip),%rdx        # 5030 <chef_positions>
    2170:	8b 45 f0             	mov    -0x10(%rbp),%eax
    2173:	89 04 11             	mov    %eax,(%rcx,%rdx,1)
    2176:	8b 45 bc             	mov    -0x44(%rbp),%eax
    2179:	48 98                	cltq
    217b:	48 8d 0c c5 00 00 00 	lea    0x0(,%rax,8),%rcx
    2182:	00 
    2183:	48 8d 15 aa 2e 00 00 	lea    0x2eaa(%rip),%rdx        # 5034 <chef_positions+0x4>
    218a:	8b 45 f4             	mov    -0xc(%rbp),%eax
    218d:	89 04 11             	mov    %eax,(%rcx,%rdx,1)
    2190:	48 8d 05 89 2f 00 00 	lea    0x2f89(%rip),%rax        # 5120 <screen_lock>
    2197:	48 89 c7             	mov    %rax,%rdi
    219a:	e8 81 f2 ff ff       	call   1420 <pthread_mutex_lock@plt>
    219f:	8b 4d e8             	mov    -0x18(%rbp),%ecx
    21a2:	8b 45 ec             	mov    -0x14(%rbp),%eax
    21a5:	48 8d 15 29 0f 00 00 	lea    0xf29(%rip),%rdx        # 30d5 <_IO_stdin_used+0xd5>
    21ac:	89 ce                	mov    %ecx,%esi
    21ae:	89 c7                	mov    %eax,%edi
    21b0:	b8 00 00 00 00       	mov    $0x0,%eax
    21b5:	e8 96 f1 ff ff       	call   1350 <mvprintw@plt>
    21ba:	48 8b 05 3f 2f 00 00 	mov    0x2f3f(%rip),%rax        # 5100 <stdscr@NCURSES6_TINFO_5.0.19991023>
    21c1:	ba 00 00 00 00       	mov    $0x0,%edx
    21c6:	be 00 00 20 00       	mov    $0x200000,%esi
    21cb:	48 89 c7             	mov    %rax,%rdi
    21ce:	e8 4d f1 ff ff       	call   1320 <wattr_on@plt>
    21d3:	48 8b 55 c0          	mov    -0x40(%rbp),%rdx
    21d7:	8b 75 f0             	mov    -0x10(%rbp),%esi
    21da:	8b 45 f4             	mov    -0xc(%rbp),%eax
    21dd:	48 89 d1             	mov    %rdx,%rcx
    21e0:	48 8d 15 eb 0e 00 00 	lea    0xeeb(%rip),%rdx        # 30d2 <_IO_stdin_used+0xd2>
    21e7:	89 c7                	mov    %eax,%edi
    21e9:	b8 00 00 00 00       	mov    $0x0,%eax
    21ee:	e8 5d f1 ff ff       	call   1350 <mvprintw@plt>
    21f3:	48 8b 05 06 2f 00 00 	mov    0x2f06(%rip),%rax        # 5100 <stdscr@NCURSES6_TINFO_5.0.19991023>
    21fa:	ba 00 00 00 00       	mov    $0x0,%edx
    21ff:	be 00 00 20 00       	mov    $0x200000,%esi
    2204:	48 89 c7             	mov    %rax,%rdi
    2207:	e8 04 f2 ff ff       	call   1410 <wattr_off@plt>
    220c:	48 8b 05 ed 2e 00 00 	mov    0x2eed(%rip),%rax        # 5100 <stdscr@NCURSES6_TINFO_5.0.19991023>
    2213:	48 89 c7             	mov    %rax,%rdi
    2216:	e8 e5 f0 ff ff       	call   1300 <wrefresh@plt>
    221b:	48 8d 05 fe 2e 00 00 	lea    0x2efe(%rip),%rax        # 5120 <screen_lock>
    2222:	48 89 c7             	mov    %rax,%rdi
    2225:	e8 36 f1 ff ff       	call   1360 <pthread_mutex_unlock@plt>
    222a:	8b 45 f0             	mov    -0x10(%rbp),%eax
    222d:	89 45 e8             	mov    %eax,-0x18(%rbp)
    2230:	8b 45 f4             	mov    -0xc(%rbp),%eax
    2233:	89 45 ec             	mov    %eax,-0x14(%rbp)
    2236:	8b 05 e4 2d 00 00    	mov    0x2de4(%rip),%eax        # 5020 <move_delay_us>
    223c:	89 c7                	mov    %eax,%edi
    223e:	e8 ed f1 ff ff       	call   1430 <usleep@plt>
    2243:	48 8b 45 d8          	mov    -0x28(%rbp),%rax
    2247:	8b 10                	mov    (%rax),%edx
    2249:	8b 45 cc             	mov    -0x34(%rbp),%eax
    224c:	39 c2                	cmp    %eax,%edx
    224e:	0f 85 76 fc ff ff    	jne    1eca <move_chef+0x4c>
    2254:	48 8b 45 d0          	mov    -0x30(%rbp),%rax
    2258:	8b 10                	mov    (%rax),%edx
    225a:	8b 45 c8             	mov    -0x38(%rbp),%eax
    225d:	39 c2                	cmp    %eax,%edx
    225f:	0f 85 65 fc ff ff    	jne    1eca <move_chef+0x4c>
    2265:	48 8d 05 b4 2e 00 00 	lea    0x2eb4(%rip),%rax        # 5120 <screen_lock>
    226c:	48 89 c7             	mov    %rax,%rdi
    226f:	e8 ac f1 ff ff       	call   1420 <pthread_mutex_lock@plt>
    2274:	8b 4d c8             	mov    -0x38(%rbp),%ecx
    2277:	8b 55 cc             	mov    -0x34(%rbp),%edx
    227a:	8b 45 bc             	mov    -0x44(%rbp),%eax
    227d:	8d 78 01             	lea    0x1(%rax),%edi
    2280:	48 8b 45 c0          	mov    -0x40(%rbp),%rax
    2284:	41 89 c9             	mov    %ecx,%r9d
    2287:	41 89 d0             	mov    %edx,%r8d
    228a:	48 89 c1             	mov    %rax,%rcx
    228d:	48 8d 05 44 0e 00 00 	lea    0xe44(%rip),%rax        # 30d8 <_IO_stdin_used+0xd8>
    2294:	48 89 c2             	mov    %rax,%rdx
    2297:	be 01 00 00 00       	mov    $0x1,%esi
    229c:	b8 00 00 00 00       	mov    $0x0,%eax
    22a1:	e8 aa f0 ff ff       	call   1350 <mvprintw@plt>
    22a6:	48 8b 05 53 2e 00 00 	mov    0x2e53(%rip),%rax        # 5100 <stdscr@NCURSES6_TINFO_5.0.19991023>
    22ad:	48 89 c7             	mov    %rax,%rdi
    22b0:	e8 4b f0 ff ff       	call   1300 <wrefresh@plt>
    22b5:	48 8d 05 64 2e 00 00 	lea    0x2e64(%rip),%rax        # 5120 <screen_lock>
    22bc:	48 89 c7             	mov    %rax,%rdi
    22bf:	e8 9c f0 ff ff       	call   1360 <pthread_mutex_unlock@plt>
    22c4:	90                   	nop
    22c5:	c9                   	leave
    22c6:	c3                   	ret

00000000000022c7 <chef_task_thread>:
    22c7:	f3 0f 1e fa          	endbr64
    22cb:	55                   	push   %rbp
    22cc:	48 89 e5             	mov    %rsp,%rbp
    22cf:	48 81 ec e0 00 00 00 	sub    $0xe0,%rsp
    22d6:	48 89 bd 28 ff ff ff 	mov    %rdi,-0xd8(%rbp)
    22dd:	64 48 8b 04 25 28 00 	mov    %fs:0x28,%rax
    22e4:	00 00 
    22e6:	48 89 45 f8          	mov    %rax,-0x8(%rbp)
    22ea:	31 c0                	xor    %eax,%eax
    22ec:	48 8b 85 28 ff ff ff 	mov    -0xd8(%rbp),%rax
    22f3:	8b 00                	mov    (%rax),%eax
    22f5:	89 85 44 ff ff ff    	mov    %eax,-0xbc(%rbp)
    22fb:	48 8d 8d 70 ff ff ff 	lea    -0x90(%rbp),%rcx
    2302:	8b 85 44 ff ff ff    	mov    -0xbc(%rbp),%eax
    2308:	ba 7f 00 00 00       	mov    $0x7f,%edx
    230d:	48 89 ce             	mov    %rcx,%rsi
    2310:	89 c7                	mov    %eax,%edi
    2312:	e8 19 f0 ff ff       	call   1330 <read@plt>
    2317:	89 85 48 ff ff ff    	mov    %eax,-0xb8(%rbp)
    231d:	83 bd 48 ff ff ff 00 	cmpl   $0x0,-0xb8(%rbp)
    2324:	0f 8e 19 01 00 00    	jle    2443 <chef_task_thread+0x17c>
    232a:	8b 85 48 ff ff ff    	mov    -0xb8(%rbp),%eax
    2330:	48 98                	cltq
    2332:	c6 84 05 70 ff ff ff 	movb   $0x0,-0x90(%rbp,%rax,1)
    2339:	00 
    233a:	4c 8d 85 3c ff ff ff 	lea    -0xc4(%rbp),%r8
    2341:	48 8d bd 38 ff ff ff 	lea    -0xc8(%rbp),%rdi
    2348:	48 8d 8d 34 ff ff ff 	lea    -0xcc(%rbp),%rcx
    234f:	48 8d 95 30 ff ff ff 	lea    -0xd0(%rbp),%rdx
    2356:	48 8d 85 70 ff ff ff 	lea    -0x90(%rbp),%rax
    235d:	48 83 ec 08          	sub    $0x8,%rsp
    2361:	48 8d b5 40 ff ff ff 	lea    -0xc0(%rbp),%rsi
    2368:	56                   	push   %rsi
    2369:	4d 89 c1             	mov    %r8,%r9
    236c:	49 89 f8             	mov    %rdi,%r8
    236f:	48 8d 35 80 0d 00 00 	lea    0xd80(%rip),%rsi        # 30f6 <_IO_stdin_used+0xf6>
    2376:	48 89 c7             	mov    %rax,%rdi
    2379:	b8 00 00 00 00       	mov    $0x0,%eax
    237e:	e8 0d f0 ff ff       	call   1390 <__isoc99_sscanf@plt>
    2383:	48 83 c4 10          	add    $0x10,%rsp
    2387:	83 f8 05             	cmp    $0x5,%eax
    238a:	0f 85 6b ff ff ff    	jne    22fb <chef_task_thread+0x34>
    2390:	c7 85 4c ff ff ff 00 	movl   $0x0,-0xb4(%rbp)
    2397:	00 00 00 
    239a:	8b 95 40 ff ff ff    	mov    -0xc0(%rbp),%edx
    23a0:	8b 85 3c ff ff ff    	mov    -0xc4(%rbp),%eax
    23a6:	8b 8d 4c ff ff ff    	mov    -0xb4(%rbp),%ecx
    23ac:	48 63 c9             	movslq %ecx,%rcx
    23af:	48 c1 e1 03          	shl    $0x3,%rcx
    23b3:	48 8d 71 04          	lea    0x4(%rcx),%rsi
    23b7:	48 8d 0d 72 2c 00 00 	lea    0x2c72(%rip),%rcx        # 5030 <chef_positions>
    23be:	48 01 ce             	add    %rcx,%rsi
    23c1:	8b 8d 4c ff ff ff    	mov    -0xb4(%rbp),%ecx
    23c7:	48 63 c9             	movslq %ecx,%rcx
    23ca:	48 8d 3c cd 00 00 00 	lea    0x0(,%rcx,8),%rdi
    23d1:	00 
    23d2:	48 8d 0d 57 2c 00 00 	lea    0x2c57(%rip),%rcx        # 5030 <chef_positions>
    23d9:	48 01 cf             	add    %rcx,%rdi
    23dc:	8b 8d 4c ff ff ff    	mov    -0xb4(%rbp),%ecx
    23e2:	41 89 c9             	mov    %ecx,%r9d
    23e5:	4c 8d 05 19 0d 00 00 	lea    0xd19(%rip),%r8        # 3105 <_IO_stdin_used+0x105>
    23ec:	89 d1                	mov    %edx,%ecx
    23ee:	89 c2                	mov    %eax,%edx
    23f0:	e8 89 fa ff ff       	call   1e7e <move_chef>
    23f5:	48 8d 85 50 ff ff ff 	lea    -0xb0(%rbp),%rax
    23fc:	48 8d 15 04 0d 00 00 	lea    0xd04(%rip),%rdx        # 3107 <_IO_stdin_used+0x107>
    2403:	be 20 00 00 00       	mov    $0x20,%esi
    2408:	48 89 c7             	mov    %rax,%rdi
    240b:	b8 00 00 00 00       	mov    $0x0,%eax
    2410:	e8 cb ee ff ff       	call   12e0 <snprintf@plt>
    2415:	48 8d 85 50 ff ff ff 	lea    -0xb0(%rbp),%rax
    241c:	48 89 c7             	mov    %rax,%rdi
    241f:	e8 8c ee ff ff       	call   12b0 <strlen@plt>
    2424:	48 89 c2             	mov    %rax,%rdx
    2427:	48 8d 8d 50 ff ff ff 	lea    -0xb0(%rbp),%rcx
    242e:	8b 85 44 ff ff ff    	mov    -0xbc(%rbp),%eax
    2434:	48 89 ce             	mov    %rcx,%rsi
    2437:	89 c7                	mov    %eax,%edi
    2439:	e8 22 ee ff ff       	call   1260 <write@plt>
    243e:	e9 b8 fe ff ff       	jmp    22fb <chef_task_thread+0x34>
    2443:	bf a0 86 01 00       	mov    $0x186a0,%edi
    2448:	e8 e3 ef ff ff       	call   1430 <usleep@plt>
    244d:	e9 a9 fe ff ff       	jmp    22fb <chef_task_thread+0x34>

0000000000002452 <main>:
    2452:	f3 0f 1e fa          	endbr64
    2456:	55                   	push   %rbp
    2457:	48 89 e5             	mov    %rsp,%rbp
    245a:	48 83 ec 20          	sub    $0x20,%rsp
    245e:	64 48 8b 04 25 28 00 	mov    %fs:0x28,%rax
    2465:	00 00 
    2467:	48 89 45 f8          	mov    %rax,-0x8(%rbp)
    246b:	31 c0                	xor    %eax,%eax
    246d:	e8 7e ee ff ff       	call   12f0 <initscr@plt>
    2472:	e8 f9 ee ff ff       	call   1370 <cbreak@plt>
    2477:	e8 44 ee ff ff       	call   12c0 <noecho@plt>
    247c:	bf 00 00 00 00       	mov    $0x0,%edi
    2481:	e8 ba ed ff ff       	call   1240 <curs_set@plt>
    2486:	b8 00 00 00 00       	mov    $0x0,%eax
    248b:	e8 99 f0 ff ff       	call   1529 <init_scaling>
    2490:	be 02 08 00 00       	mov    $0x802,%esi
    2495:	48 8d 05 aa 0b 00 00 	lea    0xbaa(%rip),%rax        # 3046 <_IO_stdin_used+0x46>
    249c:	48 89 c7             	mov    %rax,%rdi
    249f:	b8 00 00 00 00       	mov    $0x0,%eax
    24a4:	e8 07 ef ff ff       	call   13b0 <open@plt>
    24a9:	89 45 e0             	mov    %eax,-0x20(%rbp)
    24ac:	be 00 08 00 00       	mov    $0x800,%esi
    24b1:	48 8d 05 51 0c 00 00 	lea    0xc51(%rip),%rax        # 3109 <_IO_stdin_used+0x109>
    24b8:	48 89 c7             	mov    %rax,%rdi
    24bb:	b8 00 00 00 00       	mov    $0x0,%eax
    24c0:	e8 eb ee ff ff       	call   13b0 <open@plt>
    24c5:	89 45 e4             	mov    %eax,-0x1c(%rbp)
    24c8:	b8 00 00 00 00       	mov    $0x0,%eax
    24cd:	e8 f0 f4 ff ff       	call   19c2 <draw_layout>
    24d2:	c7 05 54 2b 00 00 2d 	movl   $0x2d,0x2b54(%rip)        # 5030 <chef_positions>
    24d9:	00 00 00 
    24dc:	c7 05 4e 2b 00 00 0c 	movl   $0xc,0x2b4e(%rip)        # 5034 <chef_positions+0x4>
    24e3:	00 00 00 
    24e6:	c7 05 48 2b 00 00 32 	movl   $0x32,0x2b48(%rip)        # 5038 <chef_positions+0x8>
    24ed:	00 00 00 
    24f0:	c7 05 42 2b 00 00 0c 	movl   $0xc,0x2b42(%rip)        # 503c <chef_positions+0xc>
    24f7:	00 00 00 
    24fa:	c7 05 3c 2b 00 00 37 	movl   $0x37,0x2b3c(%rip)        # 5040 <chef_positions+0x10>
    2501:	00 00 00 
    2504:	c7 05 36 2b 00 00 0c 	movl   $0xc,0x2b36(%rip)        # 5044 <chef_positions+0x14>
    250b:	00 00 00 
    250e:	8b 0d 20 2b 00 00    	mov    0x2b20(%rip),%ecx        # 5034 <chef_positions+0x4>
    2514:	8b 05 16 2b 00 00    	mov    0x2b16(%rip),%eax        # 5030 <chef_positions>
    251a:	48 8d 15 e6 0b 00 00 	lea    0xbe6(%rip),%rdx        # 3107 <_IO_stdin_used+0x107>
    2521:	89 ce                	mov    %ecx,%esi
    2523:	89 c7                	mov    %eax,%edi
    2525:	e8 a6 f7 ff ff       	call   1cd0 <draw_chef>
    252a:	8b 0d 0c 2b 00 00    	mov    0x2b0c(%rip),%ecx        # 503c <chef_positions+0xc>
    2530:	8b 05 02 2b 00 00    	mov    0x2b02(%rip),%eax        # 5038 <chef_positions+0x8>
    2536:	48 8d 15 d9 0b 00 00 	lea    0xbd9(%rip),%rdx        # 3116 <_IO_stdin_used+0x116>
    253d:	89 ce                	mov    %ecx,%esi
    253f:	89 c7                	mov    %eax,%edi
    2541:	e8 8a f7 ff ff       	call   1cd0 <draw_chef>
    2546:	8b 0d f8 2a 00 00    	mov    0x2af8(%rip),%ecx        # 5044 <chef_positions+0x14>
    254c:	8b 05 ee 2a 00 00    	mov    0x2aee(%rip),%eax        # 5040 <chef_positions+0x10>
    2552:	48 8d 15 bf 0b 00 00 	lea    0xbbf(%rip),%rdx        # 3118 <_IO_stdin_used+0x118>
    2559:	89 ce                	mov    %ecx,%esi
    255b:	89 c7                	mov    %eax,%edi
    255d:	e8 6e f7 ff ff       	call   1cd0 <draw_chef>
    2562:	48 8b 05 97 2b 00 00 	mov    0x2b97(%rip),%rax        # 5100 <stdscr@NCURSES6_TINFO_5.0.19991023>
    2569:	48 89 c7             	mov    %rax,%rdi
    256c:	e8 8f ed ff ff       	call   1300 <wrefresh@plt>
    2571:	8b 45 e4             	mov    -0x1c(%rbp),%eax
    2574:	85 c0                	test   %eax,%eax
    2576:	79 1b                	jns    2593 <main+0x141>
    2578:	48 8d 05 9b 0b 00 00 	lea    0xb9b(%rip),%rax        # 311a <_IO_stdin_used+0x11a>
    257f:	48 89 c7             	mov    %rax,%rdi
    2582:	e8 39 ee ff ff       	call   13c0 <perror@plt>
    2587:	e8 64 ee ff ff       	call   13f0 <endwin@plt>
    258c:	b8 01 00 00 00       	mov    $0x1,%eax
    2591:	eb 72                	jmp    2605 <main+0x1b3>
    2593:	48 8d 55 e4          	lea    -0x1c(%rbp),%rdx
    2597:	48 8d 45 e8          	lea    -0x18(%rbp),%rax
    259b:	48 89 d1             	mov    %rdx,%rcx
    259e:	48 8d 15 76 00 00 00 	lea    0x76(%rip),%rdx        # 261b <kitchen_event_thread>
    25a5:	be 00 00 00 00       	mov    $0x0,%esi
    25aa:	48 89 c7             	mov    %rax,%rdi
    25ad:	e8 ee ed ff ff       	call   13a0 <pthread_create@plt>
    25b2:	48 8d 55 e0          	lea    -0x20(%rbp),%rdx
    25b6:	48 8d 45 f0          	lea    -0x10(%rbp),%rax
    25ba:	48 89 d1             	mov    %rdx,%rcx
    25bd:	48 8d 15 03 fd ff ff 	lea    -0x2fd(%rip),%rdx        # 22c7 <chef_task_thread>
    25c4:	be 00 00 00 00       	mov    $0x0,%esi
    25c9:	48 89 c7             	mov    %rax,%rdi
    25cc:	e8 cf ed ff ff       	call   13a0 <pthread_create@plt>
    25d1:	48 8b 45 e8          	mov    -0x18(%rbp),%rax
    25d5:	be 00 00 00 00       	mov    $0x0,%esi
    25da:	48 89 c7             	mov    %rax,%rdi
    25dd:	e8 1e ee ff ff       	call   1400 <pthread_join@plt>
    25e2:	8b 45 e0             	mov    -0x20(%rbp),%eax
    25e5:	89 c7                	mov    %eax,%edi
    25e7:	e8 24 ed ff ff       	call   1310 <close@plt>
    25ec:	48 8b 05 0d 2b 00 00 	mov    0x2b0d(%rip),%rax        # 5100 <stdscr@NCURSES6_TINFO_5.0.19991023>
    25f3:	48 89 c7             	mov    %rax,%rdi
    25f6:	e8 75 ec ff ff       	call   1270 <wgetch@plt>
    25fb:	e8 f0 ed ff ff       	call   13f0 <endwin@plt>
    2600:	b8 00 00 00 00       	mov    $0x0,%eax
    2605:	48 8b 55 f8          	mov    -0x8(%rbp),%rdx
    2609:	64 48 2b 14 25 28 00 	sub    %fs:0x28,%rdx
    2610:	00 00 
    2612:	74 05                	je     2619 <main+0x1c7>
    2614:	e8 b7 ec ff ff       	call   12d0 <__stack_chk_fail@plt>
    2619:	c9                   	leave
    261a:	c3                   	ret

000000000000261b <kitchen_event_thread>:
    261b:	f3 0f 1e fa          	endbr64
    261f:	55                   	push   %rbp
    2620:	48 89 e5             	mov    %rsp,%rbp
    2623:	48 81 ec f0 00 00 00 	sub    $0xf0,%rsp
    262a:	48 89 bd 18 ff ff ff 	mov    %rdi,-0xe8(%rbp)
    2631:	64 48 8b 04 25 28 00 	mov    %fs:0x28,%rax
    2638:	00 00 
    263a:	48 89 45 f8          	mov    %rax,-0x8(%rbp)
    263e:	31 c0                	xor    %eax,%eax
    2640:	48 8b 85 18 ff ff ff 	mov    -0xe8(%rbp),%rax
    2647:	8b 00                	mov    (%rax),%eax
    2649:	89 85 30 ff ff ff    	mov    %eax,-0xd0(%rbp)
    264f:	be 02 08 00 00       	mov    $0x802,%esi
    2654:	48 8d 05 eb 09 00 00 	lea    0x9eb(%rip),%rax        # 3046 <_IO_stdin_used+0x46>
    265b:	48 89 c7             	mov    %rax,%rdi
    265e:	b8 00 00 00 00       	mov    $0x0,%eax
    2663:	e8 48 ed ff ff       	call   13b0 <open@plt>
    2668:	89 85 34 ff ff ff    	mov    %eax,-0xcc(%rbp)
    266e:	83 bd 34 ff ff ff 00 	cmpl   $0x0,-0xcc(%rbp)
    2675:	79 19                	jns    2690 <kitchen_event_thread+0x75>
    2677:	48 8d 05 d8 09 00 00 	lea    0x9d8(%rip),%rax        # 3056 <_IO_stdin_used+0x56>
    267e:	48 89 c7             	mov    %rax,%rdi
    2681:	e8 3a ed ff ff       	call   13c0 <perror@plt>
    2686:	bf 00 00 00 00       	mov    $0x0,%edi
    268b:	e8 f0 ec ff ff       	call   1380 <pthread_exit@plt>
    2690:	48 8d 8d 70 ff ff ff 	lea    -0x90(%rbp),%rcx
    2697:	8b 85 30 ff ff ff    	mov    -0xd0(%rbp),%eax
    269d:	ba 7f 00 00 00       	mov    $0x7f,%edx
    26a2:	48 89 ce             	mov    %rcx,%rsi
    26a5:	89 c7                	mov    %eax,%edi
    26a7:	e8 84 ec ff ff       	call   1330 <read@plt>
    26ac:	89 85 38 ff ff ff    	mov    %eax,-0xc8(%rbp)
    26b2:	83 bd 38 ff ff ff 00 	cmpl   $0x0,-0xc8(%rbp)
    26b9:	0f 8e 26 01 00 00    	jle    27e5 <kitchen_event_thread+0x1ca>
    26bf:	8b 85 38 ff ff ff    	mov    -0xc8(%rbp),%eax
    26c5:	48 98                	cltq
    26c7:	c6 84 05 70 ff ff ff 	movb   $0x0,-0x90(%rbp,%rax,1)
    26ce:	00 
    26cf:	48 8d bd 50 ff ff ff 	lea    -0xb0(%rbp),%rdi
    26d6:	48 8d b5 2c ff ff ff 	lea    -0xd4(%rbp),%rsi
    26dd:	48 8d 8d 40 ff ff ff 	lea    -0xc0(%rbp),%rcx
    26e4:	48 8d 95 28 ff ff ff 	lea    -0xd8(%rbp),%rdx
    26eb:	48 8d 85 70 ff ff ff 	lea    -0x90(%rbp),%rax
    26f2:	49 89 f9             	mov    %rdi,%r9
    26f5:	49 89 f0             	mov    %rsi,%r8
    26f8:	48 8d 35 2d 0a 00 00 	lea    0xa2d(%rip),%rsi        # 312c <_IO_stdin_used+0x12c>
    26ff:	48 89 c7             	mov    %rax,%rdi
    2702:	b8 00 00 00 00       	mov    $0x0,%eax
    2707:	e8 84 ec ff ff       	call   1390 <__isoc99_sscanf@plt>
    270c:	83 f8 02             	cmp    $0x2,%eax
    270f:	0f 8e d0 00 00 00    	jle    27e5 <kitchen_event_thread+0x1ca>
    2715:	8b 95 28 ff ff ff    	mov    -0xd8(%rbp),%edx
    271b:	89 d0                	mov    %edx,%eax
    271d:	c1 e0 02             	shl    $0x2,%eax
    2720:	01 d0                	add    %edx,%eax
    2722:	83 c0 2d             	add    $0x2d,%eax
    2725:	89 85 3c ff ff ff    	mov    %eax,-0xc4(%rbp)
    272b:	48 8d 05 ee 29 00 00 	lea    0x29ee(%rip),%rax        # 5120 <screen_lock>
    2732:	48 89 c7             	mov    %rax,%rdi
    2735:	e8 e6 ec ff ff       	call   1420 <pthread_mutex_lock@plt>
    273a:	48 8d 85 40 ff ff ff 	lea    -0xc0(%rbp),%rax
    2741:	48 8d 15 fa 09 00 00 	lea    0x9fa(%rip),%rdx        # 3142 <_IO_stdin_used+0x142>
    2748:	48 89 d6             	mov    %rdx,%rsi
    274b:	48 89 c7             	mov    %rax,%rdi
    274e:	e8 ed eb ff ff       	call   1340 <strcmp@plt>
    2753:	85 c0                	test   %eax,%eax
    2755:	75 3e                	jne    2795 <kitchen_event_thread+0x17a>
    2757:	8b 8d 2c ff ff ff    	mov    -0xd4(%rbp),%ecx
    275d:	8b 85 28 ff ff ff    	mov    -0xd8(%rbp),%eax
    2763:	8d 50 01             	lea    0x1(%rax),%edx
    2766:	48 8d b5 50 ff ff ff 	lea    -0xb0(%rbp),%rsi
    276d:	8b 85 3c ff ff ff    	mov    -0xc4(%rbp),%eax
    2773:	49 89 f1             	mov    %rsi,%r9
    2776:	41 89 c8             	mov    %ecx,%r8d
    2779:	89 d1                	mov    %edx,%ecx
    277b:	48 8d 15 c6 09 00 00 	lea    0x9c6(%rip),%rdx        # 3148 <_IO_stdin_used+0x148>
    2782:	be 05 00 00 00       	mov    $0x5,%esi
    2787:	89 c7                	mov    %eax,%edi
    2789:	b8 00 00 00 00       	mov    $0x0,%eax
    278e:	e8 bd eb ff ff       	call   1350 <mvprintw@plt>
    2793:	eb 32                	jmp    27c7 <kitchen_event_thread+0x1ac>
    2795:	8b 8d 2c ff ff ff    	mov    -0xd4(%rbp),%ecx
    279b:	8b 85 28 ff ff ff    	mov    -0xd8(%rbp),%eax
    27a1:	8d 50 01             	lea    0x1(%rax),%edx
    27a4:	8b 85 3c ff ff ff    	mov    -0xc4(%rbp),%eax
    27aa:	41 89 c8             	mov    %ecx,%r8d
    27ad:	89 d1                	mov    %edx,%ecx
    27af:	48 8d 15 b1 09 00 00 	lea    0x9b1(%rip),%rdx        # 3167 <_IO_stdin_used+0x167>
    27b6:	be 05 00 00 00       	mov    $0x5,%esi
    27bb:	89 c7                	mov    %eax,%edi
    27bd:	b8 00 00 00 00       	mov    $0x0,%eax
    27c2:	e8 89 eb ff ff       	call   1350 <mvprintw@plt>
    27c7:	48 8b 05 32 29 00 00 	mov    0x2932(%rip),%rax        # 5100 <stdscr@NCURSES6_TINFO_5.0.19991023>
    27ce:	48 89 c7             	mov    %rax,%rdi
    27d1:	e8 2a eb ff ff       	call   1300 <wrefresh@plt>
    27d6:	48 8d 05 43 29 00 00 	lea    0x2943(%rip),%rax        # 5120 <screen_lock>
    27dd:	48 89 c7             	mov    %rax,%rdi
    27e0:	e8 7b eb ff ff       	call   1360 <pthread_mutex_unlock@plt>
    27e5:	bf a0 86 01 00       	mov    $0x186a0,%edi
    27ea:	e8 41 ec ff ff       	call   1430 <usleep@plt>
    27ef:	e9 9c fe ff ff       	jmp    2690 <kitchen_event_thread+0x75>

.fini 區段的反組譯：

00000000000027f4 <_fini>:
    27f4:	f3 0f 1e fa          	endbr64
    27f8:	48 83 ec 08          	sub    $0x8,%rsp
    27fc:	48 83 c4 08          	add    $0x8,%rsp
    2800:	c3                   	ret
